Archive member included to satisfy reference by file (symbol)

d:/progra~2/stm32c~1/gnu-to~1/bin/../lib/gcc/arm-none-eabi/9.2.1/thumb/v7-m/nofp\libgcc.a(_arm_muldf3.o)
                              CMakeFiles/GRBL_STM32F103.elf.dir/App/grbl/gcode.c.obj (__aeabi_dmul)
d:/progra~2/stm32c~1/gnu-to~1/bin/../lib/gcc/arm-none-eabi/9.2.1/thumb/v7-m/nofp\libgcc.a(_arm_mulsf3.o)
                              CMakeFiles/GRBL_STM32F103.elf.dir/App/bsp/stm32utilities.c.obj (__aeabi_fmul)
d:/progra~2/stm32c~1/gnu-to~1/bin/../lib/gcc/arm-none-eabi/9.2.1/thumb/v7-m/nofp\libgcc.a(_arm_addsubdf3.o)
                              CMakeFiles/GRBL_STM32F103.elf.dir/App/grbl/gcode.c.obj (__aeabi_dsub)
d:/progra~2/stm32c~1/gnu-to~1/bin/../lib/gcc/arm-none-eabi/9.2.1/thumb/v7-m/nofp\libgcc.a(_arm_muldivdf3.o)
                              CMakeFiles/GRBL_STM32F103.elf.dir/App/grbl/gcode.c.obj (__aeabi_ddiv)
d:/progra~2/stm32c~1/gnu-to~1/bin/../lib/gcc/arm-none-eabi/9.2.1/thumb/v7-m/nofp\libgcc.a(_arm_cmpdf2.o)
                              CMakeFiles/GRBL_STM32F103.elf.dir/App/grbl/limits.c.obj (__aeabi_dcmplt)
d:/progra~2/stm32c~1/gnu-to~1/bin/../lib/gcc/arm-none-eabi/9.2.1/thumb/v7-m/nofp\libgcc.a(_arm_fixunsdfsi.o)
                              CMakeFiles/GRBL_STM32F103.elf.dir/App/grbl/gcode.c.obj (__aeabi_d2uiz)
d:/progra~2/stm32c~1/gnu-to~1/bin/../lib/gcc/arm-none-eabi/9.2.1/thumb/v7-m/nofp\libgcc.a(_arm_truncdfsf2.o)
                              CMakeFiles/GRBL_STM32F103.elf.dir/App/grbl/gcode.c.obj (__aeabi_d2f)
d:/progra~2/stm32c~1/gnu-to~1/bin/../lib/gcc/arm-none-eabi/9.2.1/thumb/v7-m/nofp\libgcc.a(_arm_addsubsf3.o)
                              CMakeFiles/GRBL_STM32F103.elf.dir/App/grbl/gcode.c.obj (__aeabi_fsub)
d:/progra~2/stm32c~1/gnu-to~1/bin/../lib/gcc/arm-none-eabi/9.2.1/thumb/v7-m/nofp\libgcc.a(_arm_muldivsf3.o)
                              CMakeFiles/GRBL_STM32F103.elf.dir/App/grbl/motion_control.c.obj (__aeabi_fdiv)
d:/progra~2/stm32c~1/gnu-to~1/bin/../lib/gcc/arm-none-eabi/9.2.1/thumb/v7-m/nofp\libgcc.a(_arm_cmpsf2.o)
                              CMakeFiles/GRBL_STM32F103.elf.dir/App/grbl/gcode.c.obj (__aeabi_fcmpeq)
d:/progra~2/stm32c~1/gnu-to~1/bin/../lib/gcc/arm-none-eabi/9.2.1/thumb/v7-m/nofp\libgcc.a(_arm_fixsfsi.o)
                              CMakeFiles/GRBL_STM32F103.elf.dir/App/grbl/gcode.c.obj (__aeabi_f2iz)
d:/progra~2/stm32c~1/gnu-to~1/bin/../lib/gcc/arm-none-eabi/9.2.1/thumb/v7-m/nofp\libgcc.a(_arm_fixunssfsi.o)
                              CMakeFiles/GRBL_STM32F103.elf.dir/App/grbl/stepper.c.obj (__aeabi_f2uiz)
d:/progra~2/stm32c~1/gnu-to~1/bin/../lib/gcc/arm-none-eabi/9.2.1/../../../../arm-none-eabi/lib/thumb/v7-m/nofp\libg_nano.a(lib_a-errno.o)
                              CMakeFiles/GRBL_STM32F103.elf.dir/Src/syscalls.c.obj (__errno)
d:/progra~2/stm32c~1/gnu-to~1/bin/../lib/gcc/arm-none-eabi/9.2.1/../../../../arm-none-eabi/lib/thumb/v7-m/nofp\libg_nano.a(lib_a-exit.o)
                              d:/progra~2/stm32c~1/gnu-to~1/bin/../lib/gcc/arm-none-eabi/9.2.1/../../../../arm-none-eabi/lib/thumb/v7-m/nofp/crt0.o (exit)
d:/progra~2/stm32c~1/gnu-to~1/bin/../lib/gcc/arm-none-eabi/9.2.1/../../../../arm-none-eabi/lib/thumb/v7-m/nofp\libg_nano.a(lib_a-impure.o)
                              d:/progra~2/stm32c~1/gnu-to~1/bin/../lib/gcc/arm-none-eabi/9.2.1/../../../../arm-none-eabi/lib/thumb/v7-m/nofp\libg_nano.a(lib_a-exit.o) (_global_impure_ptr)
d:/progra~2/stm32c~1/gnu-to~1/bin/../lib/gcc/arm-none-eabi/9.2.1/../../../../arm-none-eabi/lib/thumb/v7-m/nofp\libg_nano.a(lib_a-init.o)
                              d:/progra~2/stm32c~1/gnu-to~1/bin/../lib/gcc/arm-none-eabi/9.2.1/../../../../arm-none-eabi/lib/thumb/v7-m/nofp/crt0.o (__libc_init_array)
d:/progra~2/stm32c~1/gnu-to~1/bin/../lib/gcc/arm-none-eabi/9.2.1/../../../../arm-none-eabi/lib/thumb/v7-m/nofp\libg_nano.a(lib_a-memcmp.o)
                              CMakeFiles/GRBL_STM32F103.elf.dir/App/grbl/gcode.c.obj (memcmp)
d:/progra~2/stm32c~1/gnu-to~1/bin/../lib/gcc/arm-none-eabi/9.2.1/../../../../arm-none-eabi/lib/thumb/v7-m/nofp\libg_nano.a(lib_a-memset.o)
                              d:/progra~2/stm32c~1/gnu-to~1/bin/../lib/gcc/arm-none-eabi/9.2.1/../../../../arm-none-eabi/lib/thumb/v7-m/nofp/crt0.o (memset)
d:/progra~2/stm32c~1/gnu-to~1/bin/../lib/gcc/arm-none-eabi/9.2.1/../../../../arm-none-eabi/lib/thumb/v7-m/nofp\libg_nano.a(lib_a-sprintf.o)
                              CMakeFiles/GRBL_STM32F103.elf.dir/App/bsp/stm32utilities.c.obj (sprintf)
d:/progra~2/stm32c~1/gnu-to~1/bin/../lib/gcc/arm-none-eabi/9.2.1/../../../../arm-none-eabi/lib/thumb/v7-m/nofp\libg_nano.a(lib_a-nano-svfprintf.o)
                              d:/progra~2/stm32c~1/gnu-to~1/bin/../lib/gcc/arm-none-eabi/9.2.1/../../../../arm-none-eabi/lib/thumb/v7-m/nofp\libg_nano.a(lib_a-sprintf.o) (_svfprintf_r)
d:/progra~2/stm32c~1/gnu-to~1/bin/../lib/gcc/arm-none-eabi/9.2.1/../../../../arm-none-eabi/lib/thumb/v7-m/nofp\libg_nano.a(lib_a-nano-vfprintf_i.o)
                              d:/progra~2/stm32c~1/gnu-to~1/bin/../lib/gcc/arm-none-eabi/9.2.1/../../../../arm-none-eabi/lib/thumb/v7-m/nofp\libg_nano.a(lib_a-nano-svfprintf.o) (_printf_i)
d:/progra~2/stm32c~1/gnu-to~1/bin/../lib/gcc/arm-none-eabi/9.2.1/../../../../arm-none-eabi/lib/thumb/v7-m/nofp\libg_nano.a(lib_a-memchr-stub.o)
                              d:/progra~2/stm32c~1/gnu-to~1/bin/../lib/gcc/arm-none-eabi/9.2.1/../../../../arm-none-eabi/lib/thumb/v7-m/nofp\libg_nano.a(lib_a-nano-svfprintf.o) (memchr)
d:/progra~2/stm32c~1/gnu-to~1/bin/../lib/gcc/arm-none-eabi/9.2.1/../../../../arm-none-eabi/lib/thumb/v7-m/nofp\libg_nano.a(lib_a-memcpy-stub.o)
                              d:/progra~2/stm32c~1/gnu-to~1/bin/../lib/gcc/arm-none-eabi/9.2.1/../../../../arm-none-eabi/lib/thumb/v7-m/nofp\libg_nano.a(lib_a-nano-svfprintf.o) (memcpy)
d:/progra~2/stm32c~1/gnu-to~1/bin/../lib/gcc/arm-none-eabi/9.2.1/../../../../arm-none-eabi/lib/thumb/v7-m/nofp\libg_nano.a(lib_a-memmove.o)
                              d:/progra~2/stm32c~1/gnu-to~1/bin/../lib/gcc/arm-none-eabi/9.2.1/../../../../arm-none-eabi/lib/thumb/v7-m/nofp\libg_nano.a(lib_a-nano-svfprintf.o) (memmove)
d:/progra~2/stm32c~1/gnu-to~1/bin/../lib/gcc/arm-none-eabi/9.2.1/../../../../arm-none-eabi/lib/thumb/v7-m/nofp\libg_nano.a(lib_a-nano-freer.o)
                              d:/progra~2/stm32c~1/gnu-to~1/bin/../lib/gcc/arm-none-eabi/9.2.1/../../../../arm-none-eabi/lib/thumb/v7-m/nofp\libg_nano.a(lib_a-nano-svfprintf.o) (_free_r)
d:/progra~2/stm32c~1/gnu-to~1/bin/../lib/gcc/arm-none-eabi/9.2.1/../../../../arm-none-eabi/lib/thumb/v7-m/nofp\libg_nano.a(lib_a-nano-mallocr.o)
                              d:/progra~2/stm32c~1/gnu-to~1/bin/../lib/gcc/arm-none-eabi/9.2.1/../../../../arm-none-eabi/lib/thumb/v7-m/nofp\libg_nano.a(lib_a-nano-svfprintf.o) (_malloc_r)
d:/progra~2/stm32c~1/gnu-to~1/bin/../lib/gcc/arm-none-eabi/9.2.1/../../../../arm-none-eabi/lib/thumb/v7-m/nofp\libg_nano.a(lib_a-nano-reallocr.o)
                              d:/progra~2/stm32c~1/gnu-to~1/bin/../lib/gcc/arm-none-eabi/9.2.1/../../../../arm-none-eabi/lib/thumb/v7-m/nofp\libg_nano.a(lib_a-nano-svfprintf.o) (_realloc_r)
d:/progra~2/stm32c~1/gnu-to~1/bin/../lib/gcc/arm-none-eabi/9.2.1/../../../../arm-none-eabi/lib/thumb/v7-m/nofp\libg_nano.a(lib_a-sbrkr.o)
                              d:/progra~2/stm32c~1/gnu-to~1/bin/../lib/gcc/arm-none-eabi/9.2.1/../../../../arm-none-eabi/lib/thumb/v7-m/nofp\libg_nano.a(lib_a-nano-mallocr.o) (_sbrk_r)
d:/progra~2/stm32c~1/gnu-to~1/bin/../lib/gcc/arm-none-eabi/9.2.1/../../../../arm-none-eabi/lib/thumb/v7-m/nofp\libg_nano.a(lib_a-mlock.o)
                              d:/progra~2/stm32c~1/gnu-to~1/bin/../lib/gcc/arm-none-eabi/9.2.1/../../../../arm-none-eabi/lib/thumb/v7-m/nofp\libg_nano.a(lib_a-nano-freer.o) (__malloc_lock)
d:/progra~2/stm32c~1/gnu-to~1/bin/../lib/gcc/arm-none-eabi/9.2.1/../../../../arm-none-eabi/lib/thumb/v7-m/nofp\libg_nano.a(lib_a-nano-msizer.o)
                              d:/progra~2/stm32c~1/gnu-to~1/bin/../lib/gcc/arm-none-eabi/9.2.1/../../../../arm-none-eabi/lib/thumb/v7-m/nofp\libg_nano.a(lib_a-nano-reallocr.o) (_malloc_usable_size_r)
d:/progra~2/stm32c~1/gnu-to~1/bin/../lib/gcc/arm-none-eabi/9.2.1/../../../../arm-none-eabi/lib/thumb/v7-m/nofp\libg_nano.a(lib_a-reent.o)
                              d:/progra~2/stm32c~1/gnu-to~1/bin/../lib/gcc/arm-none-eabi/9.2.1/../../../../arm-none-eabi/lib/thumb/v7-m/nofp\libg_nano.a(lib_a-sbrkr.o) (errno)
d:/progra~2/stm32c~1/gnu-to~1/bin/../lib/gcc/arm-none-eabi/9.2.1/../../../../arm-none-eabi/lib/thumb/v7-m/nofp\libg_nano.a(lib_a-lock.o)
                              d:/progra~2/stm32c~1/gnu-to~1/bin/../lib/gcc/arm-none-eabi/9.2.1/../../../../arm-none-eabi/lib/thumb/v7-m/nofp\libg_nano.a(lib_a-mlock.o) (__retarget_lock_acquire_recursive)
d:/progra~2/stm32c~1/gnu-to~1/bin/../lib/gcc/arm-none-eabi/9.2.1/../../../../arm-none-eabi/lib/thumb/v7-m/nofp\libm.a(lib_a-s_ceil.o)
                              CMakeFiles/GRBL_STM32F103.elf.dir/App/grbl/nuts_bolts.c.obj (ceil)
d:/progra~2/stm32c~1/gnu-to~1/bin/../lib/gcc/arm-none-eabi/9.2.1/../../../../arm-none-eabi/lib/thumb/v7-m/nofp\libm.a(lib_a-s_floor.o)
                              CMakeFiles/GRBL_STM32F103.elf.dir/App/grbl/motion_control.c.obj (floor)
d:/progra~2/stm32c~1/gnu-to~1/bin/../lib/gcc/arm-none-eabi/9.2.1/../../../../arm-none-eabi/lib/thumb/v7-m/nofp\libm.a(lib_a-s_lround.o)
                              CMakeFiles/GRBL_STM32F103.elf.dir/App/grbl/limits.c.obj (lround)
d:/progra~2/stm32c~1/gnu-to~1/bin/../lib/gcc/arm-none-eabi/9.2.1/../../../../arm-none-eabi/lib/thumb/v7-m/nofp\libm.a(lib_a-s_round.o)
                              CMakeFiles/GRBL_STM32F103.elf.dir/App/grbl/gcode.c.obj (round)
d:/progra~2/stm32c~1/gnu-to~1/bin/../lib/gcc/arm-none-eabi/9.2.1/../../../../arm-none-eabi/lib/thumb/v7-m/nofp\libm.a(lib_a-s_trunc.o)
                              CMakeFiles/GRBL_STM32F103.elf.dir/App/grbl/gcode.c.obj (trunc)
d:/progra~2/stm32c~1/gnu-to~1/bin/../lib/gcc/arm-none-eabi/9.2.1/../../../../arm-none-eabi/lib/thumb/v7-m/nofp\libm.a(lib_a-sf_ceil.o)
                              CMakeFiles/GRBL_STM32F103.elf.dir/App/grbl/stepper.c.obj (ceilf)
d:/progra~2/stm32c~1/gnu-to~1/bin/../lib/gcc/arm-none-eabi/9.2.1/../../../../arm-none-eabi/lib/thumb/v7-m/nofp\libm.a(lib_a-sf_cos.o)
                              CMakeFiles/GRBL_STM32F103.elf.dir/App/grbl/motion_control.c.obj (cosf)
d:/progra~2/stm32c~1/gnu-to~1/bin/../lib/gcc/arm-none-eabi/9.2.1/../../../../arm-none-eabi/lib/thumb/v7-m/nofp\libm.a(lib_a-sf_sin.o)
                              CMakeFiles/GRBL_STM32F103.elf.dir/App/grbl/motion_control.c.obj (sinf)
d:/progra~2/stm32c~1/gnu-to~1/bin/../lib/gcc/arm-none-eabi/9.2.1/../../../../arm-none-eabi/lib/thumb/v7-m/nofp\libm.a(lib_a-w_sqrt.o)
                              CMakeFiles/GRBL_STM32F103.elf.dir/App/grbl/gcode.c.obj (sqrt)
d:/progra~2/stm32c~1/gnu-to~1/bin/../lib/gcc/arm-none-eabi/9.2.1/../../../../arm-none-eabi/lib/thumb/v7-m/nofp\libm.a(lib_a-wf_atan2.o)
                              CMakeFiles/GRBL_STM32F103.elf.dir/App/grbl/motion_control.c.obj (atan2f)
d:/progra~2/stm32c~1/gnu-to~1/bin/../lib/gcc/arm-none-eabi/9.2.1/../../../../arm-none-eabi/lib/thumb/v7-m/nofp\libm.a(lib_a-wf_sqrt.o)
                              CMakeFiles/GRBL_STM32F103.elf.dir/App/grbl/limits.c.obj (sqrtf)
d:/progra~2/stm32c~1/gnu-to~1/bin/../lib/gcc/arm-none-eabi/9.2.1/../../../../arm-none-eabi/lib/thumb/v7-m/nofp\libm.a(lib_a-e_sqrt.o)
                              d:/progra~2/stm32c~1/gnu-to~1/bin/../lib/gcc/arm-none-eabi/9.2.1/../../../../arm-none-eabi/lib/thumb/v7-m/nofp\libm.a(lib_a-w_sqrt.o) (__ieee754_sqrt)
d:/progra~2/stm32c~1/gnu-to~1/bin/../lib/gcc/arm-none-eabi/9.2.1/../../../../arm-none-eabi/lib/thumb/v7-m/nofp\libm.a(lib_a-ef_atan2.o)
                              d:/progra~2/stm32c~1/gnu-to~1/bin/../lib/gcc/arm-none-eabi/9.2.1/../../../../arm-none-eabi/lib/thumb/v7-m/nofp\libm.a(lib_a-wf_atan2.o) (__ieee754_atan2f)
d:/progra~2/stm32c~1/gnu-to~1/bin/../lib/gcc/arm-none-eabi/9.2.1/../../../../arm-none-eabi/lib/thumb/v7-m/nofp\libm.a(lib_a-ef_rem_pio2.o)
                              d:/progra~2/stm32c~1/gnu-to~1/bin/../lib/gcc/arm-none-eabi/9.2.1/../../../../arm-none-eabi/lib/thumb/v7-m/nofp\libm.a(lib_a-sf_cos.o) (__ieee754_rem_pio2f)
d:/progra~2/stm32c~1/gnu-to~1/bin/../lib/gcc/arm-none-eabi/9.2.1/../../../../arm-none-eabi/lib/thumb/v7-m/nofp\libm.a(lib_a-ef_sqrt.o)
                              d:/progra~2/stm32c~1/gnu-to~1/bin/../lib/gcc/arm-none-eabi/9.2.1/../../../../arm-none-eabi/lib/thumb/v7-m/nofp\libm.a(lib_a-wf_sqrt.o) (__ieee754_sqrtf)
d:/progra~2/stm32c~1/gnu-to~1/bin/../lib/gcc/arm-none-eabi/9.2.1/../../../../arm-none-eabi/lib/thumb/v7-m/nofp\libm.a(lib_a-kf_cos.o)
                              d:/progra~2/stm32c~1/gnu-to~1/bin/../lib/gcc/arm-none-eabi/9.2.1/../../../../arm-none-eabi/lib/thumb/v7-m/nofp\libm.a(lib_a-sf_cos.o) (__kernel_cosf)
d:/progra~2/stm32c~1/gnu-to~1/bin/../lib/gcc/arm-none-eabi/9.2.1/../../../../arm-none-eabi/lib/thumb/v7-m/nofp\libm.a(lib_a-kf_rem_pio2.o)
                              d:/progra~2/stm32c~1/gnu-to~1/bin/../lib/gcc/arm-none-eabi/9.2.1/../../../../arm-none-eabi/lib/thumb/v7-m/nofp\libm.a(lib_a-ef_rem_pio2.o) (__kernel_rem_pio2f)
d:/progra~2/stm32c~1/gnu-to~1/bin/../lib/gcc/arm-none-eabi/9.2.1/../../../../arm-none-eabi/lib/thumb/v7-m/nofp\libm.a(lib_a-kf_sin.o)
                              d:/progra~2/stm32c~1/gnu-to~1/bin/../lib/gcc/arm-none-eabi/9.2.1/../../../../arm-none-eabi/lib/thumb/v7-m/nofp\libm.a(lib_a-sf_cos.o) (__kernel_sinf)
d:/progra~2/stm32c~1/gnu-to~1/bin/../lib/gcc/arm-none-eabi/9.2.1/../../../../arm-none-eabi/lib/thumb/v7-m/nofp\libm.a(lib_a-s_lib_ver.o)
                              d:/progra~2/stm32c~1/gnu-to~1/bin/../lib/gcc/arm-none-eabi/9.2.1/../../../../arm-none-eabi/lib/thumb/v7-m/nofp\libm.a(lib_a-w_sqrt.o) (__fdlib_version)
d:/progra~2/stm32c~1/gnu-to~1/bin/../lib/gcc/arm-none-eabi/9.2.1/../../../../arm-none-eabi/lib/thumb/v7-m/nofp\libm.a(lib_a-s_matherr.o)
                              d:/progra~2/stm32c~1/gnu-to~1/bin/../lib/gcc/arm-none-eabi/9.2.1/../../../../arm-none-eabi/lib/thumb/v7-m/nofp\libm.a(lib_a-w_sqrt.o) (matherr)
d:/progra~2/stm32c~1/gnu-to~1/bin/../lib/gcc/arm-none-eabi/9.2.1/../../../../arm-none-eabi/lib/thumb/v7-m/nofp\libm.a(lib_a-sf_atan.o)
                              d:/progra~2/stm32c~1/gnu-to~1/bin/../lib/gcc/arm-none-eabi/9.2.1/../../../../arm-none-eabi/lib/thumb/v7-m/nofp\libm.a(lib_a-ef_atan2.o) (atanf)
d:/progra~2/stm32c~1/gnu-to~1/bin/../lib/gcc/arm-none-eabi/9.2.1/../../../../arm-none-eabi/lib/thumb/v7-m/nofp\libm.a(lib_a-sf_fabs.o)
                              d:/progra~2/stm32c~1/gnu-to~1/bin/../lib/gcc/arm-none-eabi/9.2.1/../../../../arm-none-eabi/lib/thumb/v7-m/nofp\libm.a(lib_a-ef_atan2.o) (fabsf)
d:/progra~2/stm32c~1/gnu-to~1/bin/../lib/gcc/arm-none-eabi/9.2.1/../../../../arm-none-eabi/lib/thumb/v7-m/nofp\libm.a(lib_a-sf_floor.o)
                              d:/progra~2/stm32c~1/gnu-to~1/bin/../lib/gcc/arm-none-eabi/9.2.1/../../../../arm-none-eabi/lib/thumb/v7-m/nofp\libm.a(lib_a-kf_rem_pio2.o) (floorf)
d:/progra~2/stm32c~1/gnu-to~1/bin/../lib/gcc/arm-none-eabi/9.2.1/../../../../arm-none-eabi/lib/thumb/v7-m/nofp\libm.a(lib_a-sf_scalbn.o)
                              d:/progra~2/stm32c~1/gnu-to~1/bin/../lib/gcc/arm-none-eabi/9.2.1/../../../../arm-none-eabi/lib/thumb/v7-m/nofp\libm.a(lib_a-kf_rem_pio2.o) (scalbnf)
d:/progra~2/stm32c~1/gnu-to~1/bin/../lib/gcc/arm-none-eabi/9.2.1/thumb/v7-m/nofp\libgcc.a(_arm_unorddf2.o)
                              d:/progra~2/stm32c~1/gnu-to~1/bin/../lib/gcc/arm-none-eabi/9.2.1/../../../../arm-none-eabi/lib/thumb/v7-m/nofp\libm.a(lib_a-w_sqrt.o) (__aeabi_dcmpun)
d:/progra~2/stm32c~1/gnu-to~1/bin/../lib/gcc/arm-none-eabi/9.2.1/thumb/v7-m/nofp\libgcc.a(_arm_fixdfsi.o)
                              d:/progra~2/stm32c~1/gnu-to~1/bin/../lib/gcc/arm-none-eabi/9.2.1/../../../../arm-none-eabi/lib/thumb/v7-m/nofp\libm.a(lib_a-s_lround.o) (__aeabi_d2iz)
d:/progra~2/stm32c~1/gnu-to~1/bin/../lib/gcc/arm-none-eabi/9.2.1/thumb/v7-m/nofp\libgcc.a(_arm_unordsf2.o)
                              d:/progra~2/stm32c~1/gnu-to~1/bin/../lib/gcc/arm-none-eabi/9.2.1/../../../../arm-none-eabi/lib/thumb/v7-m/nofp\libm.a(lib_a-wf_sqrt.o) (__aeabi_fcmpun)

Allocating common symbols
Common symbol       size              file

__lock___atexit_recursive_mutex
                    0x1               d:/progra~2/stm32c~1/gnu-to~1/bin/../lib/gcc/arm-none-eabi/9.2.1/../../../../arm-none-eabi/lib/thumb/v7-m/nofp\libg_nano.a(lib_a-lock.o)
__lock___arc4random_mutex
                    0x1               d:/progra~2/stm32c~1/gnu-to~1/bin/../lib/gcc/arm-none-eabi/9.2.1/../../../../arm-none-eabi/lib/thumb/v7-m/nofp\libg_nano.a(lib_a-lock.o)
errno               0x4               d:/progra~2/stm32c~1/gnu-to~1/bin/../lib/gcc/arm-none-eabi/9.2.1/../../../../arm-none-eabi/lib/thumb/v7-m/nofp\libg_nano.a(lib_a-reent.o)
__lock___env_recursive_mutex
                    0x1               d:/progra~2/stm32c~1/gnu-to~1/bin/../lib/gcc/arm-none-eabi/9.2.1/../../../../arm-none-eabi/lib/thumb/v7-m/nofp\libg_nano.a(lib_a-lock.o)
__lock___sinit_recursive_mutex
                    0x1               d:/progra~2/stm32c~1/gnu-to~1/bin/../lib/gcc/arm-none-eabi/9.2.1/../../../../arm-none-eabi/lib/thumb/v7-m/nofp\libg_nano.a(lib_a-lock.o)
__lock___malloc_recursive_mutex
                    0x1               d:/progra~2/stm32c~1/gnu-to~1/bin/../lib/gcc/arm-none-eabi/9.2.1/../../../../arm-none-eabi/lib/thumb/v7-m/nofp\libg_nano.a(lib_a-lock.o)
__lock___at_quick_exit_mutex
                    0x1               d:/progra~2/stm32c~1/gnu-to~1/bin/../lib/gcc/arm-none-eabi/9.2.1/../../../../arm-none-eabi/lib/thumb/v7-m/nofp\libg_nano.a(lib_a-lock.o)
__lock___dd_hash_mutex
                    0x1               d:/progra~2/stm32c~1/gnu-to~1/bin/../lib/gcc/arm-none-eabi/9.2.1/../../../../arm-none-eabi/lib/thumb/v7-m/nofp\libg_nano.a(lib_a-lock.o)
__lock___tz_mutex   0x1               d:/progra~2/stm32c~1/gnu-to~1/bin/../lib/gcc/arm-none-eabi/9.2.1/../../../../arm-none-eabi/lib/thumb/v7-m/nofp\libg_nano.a(lib_a-lock.o)
__lock___sfp_recursive_mutex
                    0x1               d:/progra~2/stm32c~1/gnu-to~1/bin/../lib/gcc/arm-none-eabi/9.2.1/../../../../arm-none-eabi/lib/thumb/v7-m/nofp\libg_nano.a(lib_a-lock.o)

Discarded input sections

 .text          0x00000000        0x0 d:/progra~2/stm32c~1/gnu-to~1/bin/../lib/gcc/arm-none-eabi/9.2.1/thumb/v7-m/nofp/crti.o
 .data          0x00000000        0x0 d:/progra~2/stm32c~1/gnu-to~1/bin/../lib/gcc/arm-none-eabi/9.2.1/thumb/v7-m/nofp/crti.o
 .bss           0x00000000        0x0 d:/progra~2/stm32c~1/gnu-to~1/bin/../lib/gcc/arm-none-eabi/9.2.1/thumb/v7-m/nofp/crti.o
 .data          0x00000000        0x4 d:/progra~2/stm32c~1/gnu-to~1/bin/../lib/gcc/arm-none-eabi/9.2.1/thumb/v7-m/nofp/crtbegin.o
 .text          0x00000000       0x74 d:/progra~2/stm32c~1/gnu-to~1/bin/../lib/gcc/arm-none-eabi/9.2.1/../../../../arm-none-eabi/lib/thumb/v7-m/nofp/crt0.o
 .data          0x00000000        0x0 d:/progra~2/stm32c~1/gnu-to~1/bin/../lib/gcc/arm-none-eabi/9.2.1/../../../../arm-none-eabi/lib/thumb/v7-m/nofp/crt0.o
 .bss           0x00000000        0x0 d:/progra~2/stm32c~1/gnu-to~1/bin/../lib/gcc/arm-none-eabi/9.2.1/../../../../arm-none-eabi/lib/thumb/v7-m/nofp/crt0.o
 .ARM.extab     0x00000000        0x0 d:/progra~2/stm32c~1/gnu-to~1/bin/../lib/gcc/arm-none-eabi/9.2.1/../../../../arm-none-eabi/lib/thumb/v7-m/nofp/crt0.o
 .ARM.exidx     0x00000000        0x8 d:/progra~2/stm32c~1/gnu-to~1/bin/../lib/gcc/arm-none-eabi/9.2.1/../../../../arm-none-eabi/lib/thumb/v7-m/nofp/crt0.o
 .ARM.attributes
                0x00000000       0x1b d:/progra~2/stm32c~1/gnu-to~1/bin/../lib/gcc/arm-none-eabi/9.2.1/../../../../arm-none-eabi/lib/thumb/v7-m/nofp/crt0.o
 .text          0x00000000        0x0 CMakeFiles/GRBL_STM32F103.elf.dir/App/bsp/inoutputs.c.obj
 .data          0x00000000        0x0 CMakeFiles/GRBL_STM32F103.elf.dir/App/bsp/inoutputs.c.obj
 .bss           0x00000000        0x0 CMakeFiles/GRBL_STM32F103.elf.dir/App/bsp/inoutputs.c.obj
 .text.outputs_digital_reset
                0x00000000       0x30 CMakeFiles/GRBL_STM32F103.elf.dir/App/bsp/inoutputs.c.obj
 .text.outputs_digital_set
                0x00000000       0x30 CMakeFiles/GRBL_STM32F103.elf.dir/App/bsp/inoutputs.c.obj
 .text.outputs_get_digital_state
                0x00000000       0x30 CMakeFiles/GRBL_STM32F103.elf.dir/App/bsp/inoutputs.c.obj
 .text.outputs_set_digital
                0x00000000       0x28 CMakeFiles/GRBL_STM32F103.elf.dir/App/bsp/inoutputs.c.obj
 .text.outputs_analog_set
                0x00000000        0x4 CMakeFiles/GRBL_STM32F103.elf.dir/App/bsp/inoutputs.c.obj
 .text.outputs_set_analog
                0x00000000        0x4 CMakeFiles/GRBL_STM32F103.elf.dir/App/bsp/inoutputs.c.obj
 .text.outputs_compute_pwm_value
                0x00000000        0x4 CMakeFiles/GRBL_STM32F103.elf.dir/App/bsp/inoutputs.c.obj
 .text.inputs_digital_init
                0x00000000        0x4 CMakeFiles/GRBL_STM32F103.elf.dir/App/bsp/inoutputs.c.obj
 .text          0x00000000        0x0 CMakeFiles/GRBL_STM32F103.elf.dir/App/bsp/stm32utilities.c.obj
 .data          0x00000000        0x0 CMakeFiles/GRBL_STM32F103.elf.dir/App/bsp/stm32utilities.c.obj
 .bss           0x00000000        0x0 CMakeFiles/GRBL_STM32F103.elf.dir/App/bsp/stm32utilities.c.obj
 .text.ByteToBin
                0x00000000       0x58 CMakeFiles/GRBL_STM32F103.elf.dir/App/bsp/stm32utilities.c.obj
 .text.Int16ToBin
                0x00000000       0xa8 CMakeFiles/GRBL_STM32F103.elf.dir/App/bsp/stm32utilities.c.obj
 .text.uart_sendstr
                0x00000000       0x1c CMakeFiles/GRBL_STM32F103.elf.dir/App/bsp/stm32utilities.c.obj
 .text.spi_limits_init
                0x00000000        0x4 CMakeFiles/GRBL_STM32F103.elf.dir/App/bsp/stm32utilities.c.obj
 .rodata.str1.4
                0x00000000        0xb CMakeFiles/GRBL_STM32F103.elf.dir/App/bsp/stm32utilities.c.obj
 .bss.pDbgVal16
                0x00000000       0x11 CMakeFiles/GRBL_STM32F103.elf.dir/App/bsp/stm32utilities.c.obj
 .bss.pDbgVal8a
                0x00000000        0x9 CMakeFiles/GRBL_STM32F103.elf.dir/App/bsp/stm32utilities.c.obj
 .bss.pDbgVal8b
                0x00000000        0x9 CMakeFiles/GRBL_STM32F103.elf.dir/App/bsp/stm32utilities.c.obj
 .data.pHello   0x00000000        0x4 CMakeFiles/GRBL_STM32F103.elf.dir/App/bsp/stm32utilities.c.obj
 .text          0x00000000        0x0 CMakeFiles/GRBL_STM32F103.elf.dir/App/grbl/coolant_control.c.obj
 .data          0x00000000        0x0 CMakeFiles/GRBL_STM32F103.elf.dir/App/grbl/coolant_control.c.obj
 .bss           0x00000000        0x0 CMakeFiles/GRBL_STM32F103.elf.dir/App/grbl/coolant_control.c.obj
 .text          0x00000000        0x0 CMakeFiles/GRBL_STM32F103.elf.dir/App/grbl/eeprom.c.obj
 .data          0x00000000        0x0 CMakeFiles/GRBL_STM32F103.elf.dir/App/grbl/eeprom.c.obj
 .bss           0x00000000        0x0 CMakeFiles/GRBL_STM32F103.elf.dir/App/grbl/eeprom.c.obj
 .text          0x00000000        0x0 CMakeFiles/GRBL_STM32F103.elf.dir/App/grbl/gcode.c.obj
 .data          0x00000000        0x0 CMakeFiles/GRBL_STM32F103.elf.dir/App/grbl/gcode.c.obj
 .bss           0x00000000        0x0 CMakeFiles/GRBL_STM32F103.elf.dir/App/grbl/gcode.c.obj
 .text          0x00000000        0x0 CMakeFiles/GRBL_STM32F103.elf.dir/App/grbl/jog.c.obj
 .data          0x00000000        0x0 CMakeFiles/GRBL_STM32F103.elf.dir/App/grbl/jog.c.obj
 .bss           0x00000000        0x0 CMakeFiles/GRBL_STM32F103.elf.dir/App/grbl/jog.c.obj
 .text          0x00000000        0x0 CMakeFiles/GRBL_STM32F103.elf.dir/App/grbl/limits.c.obj
 .data          0x00000000        0x0 CMakeFiles/GRBL_STM32F103.elf.dir/App/grbl/limits.c.obj
 .bss           0x00000000        0x0 CMakeFiles/GRBL_STM32F103.elf.dir/App/grbl/limits.c.obj
 .text.limits_enable
                0x00000000        0x4 CMakeFiles/GRBL_STM32F103.elf.dir/App/grbl/limits.c.obj
 .text          0x00000000        0x0 CMakeFiles/GRBL_STM32F103.elf.dir/App/grbl/motion_control.c.obj
 .data          0x00000000        0x0 CMakeFiles/GRBL_STM32F103.elf.dir/App/grbl/motion_control.c.obj
 .bss           0x00000000        0x0 CMakeFiles/GRBL_STM32F103.elf.dir/App/grbl/motion_control.c.obj
 .text          0x00000000        0x0 CMakeFiles/GRBL_STM32F103.elf.dir/App/grbl/nuts_bolts.c.obj
 .data          0x00000000        0x0 CMakeFiles/GRBL_STM32F103.elf.dir/App/grbl/nuts_bolts.c.obj
 .bss           0x00000000        0x0 CMakeFiles/GRBL_STM32F103.elf.dir/App/grbl/nuts_bolts.c.obj
 .text._delay_ms
                0x00000000       0x28 CMakeFiles/GRBL_STM32F103.elf.dir/App/grbl/nuts_bolts.c.obj
 .text.delay_us
                0x00000000       0x70 CMakeFiles/GRBL_STM32F103.elf.dir/App/grbl/nuts_bolts.c.obj
 .text          0x00000000        0x0 CMakeFiles/GRBL_STM32F103.elf.dir/App/grbl/planner.c.obj
 .data          0x00000000        0x0 CMakeFiles/GRBL_STM32F103.elf.dir/App/grbl/planner.c.obj
 .bss           0x00000000        0x0 CMakeFiles/GRBL_STM32F103.elf.dir/App/grbl/planner.c.obj
 .text.plan_next_block_index
                0x00000000        0xc CMakeFiles/GRBL_STM32F103.elf.dir/App/grbl/planner.c.obj
 .text.plan_reset_buffer
                0x00000000       0x2c CMakeFiles/GRBL_STM32F103.elf.dir/App/grbl/planner.c.obj
 .text.plan_get_block_buffer_count
                0x00000000       0x1c CMakeFiles/GRBL_STM32F103.elf.dir/App/grbl/planner.c.obj
 .text          0x00000000        0x0 CMakeFiles/GRBL_STM32F103.elf.dir/App/grbl/print.c.obj
 .data          0x00000000        0x0 CMakeFiles/GRBL_STM32F103.elf.dir/App/grbl/print.c.obj
 .bss           0x00000000        0x0 CMakeFiles/GRBL_STM32F103.elf.dir/App/grbl/print.c.obj
 .text.print_uint8_base2_ndigit
                0x00000000       0x4c CMakeFiles/GRBL_STM32F103.elf.dir/App/grbl/print.c.obj
 .text.print_uint32_base10
                0x00000000       0x5c CMakeFiles/GRBL_STM32F103.elf.dir/App/grbl/print.c.obj
 .text.printInteger
                0x00000000       0xbc CMakeFiles/GRBL_STM32F103.elf.dir/App/grbl/print.c.obj
 .text          0x00000000        0x0 CMakeFiles/GRBL_STM32F103.elf.dir/App/grbl/probe.c.obj
 .data          0x00000000        0x0 CMakeFiles/GRBL_STM32F103.elf.dir/App/grbl/probe.c.obj
 .bss           0x00000000        0x0 CMakeFiles/GRBL_STM32F103.elf.dir/App/grbl/probe.c.obj
 .text          0x00000000        0x0 CMakeFiles/GRBL_STM32F103.elf.dir/App/grbl/protocol.c.obj
 .data          0x00000000        0x0 CMakeFiles/GRBL_STM32F103.elf.dir/App/grbl/protocol.c.obj
 .bss           0x00000000        0x0 CMakeFiles/GRBL_STM32F103.elf.dir/App/grbl/protocol.c.obj
 .text          0x00000000        0x0 CMakeFiles/GRBL_STM32F103.elf.dir/App/grbl/report.c.obj
 .data          0x00000000        0x0 CMakeFiles/GRBL_STM32F103.elf.dir/App/grbl/report.c.obj
 .bss           0x00000000        0x0 CMakeFiles/GRBL_STM32F103.elf.dir/App/grbl/report.c.obj
 .text.report_util_setting_prefix
                0x00000000       0x1c CMakeFiles/GRBL_STM32F103.elf.dir/App/grbl/report.c.obj
 .rodata.report_echo_line_received.str1.4
                0x00000000        0x8 CMakeFiles/GRBL_STM32F103.elf.dir/App/grbl/report.c.obj
 .text.report_echo_line_received
                0x00000000       0x28 CMakeFiles/GRBL_STM32F103.elf.dir/App/grbl/report.c.obj
 .text          0x00000000        0x0 CMakeFiles/GRBL_STM32F103.elf.dir/App/grbl/serial.c.obj
 .data          0x00000000        0x0 CMakeFiles/GRBL_STM32F103.elf.dir/App/grbl/serial.c.obj
 .bss           0x00000000        0x0 CMakeFiles/GRBL_STM32F103.elf.dir/App/grbl/serial.c.obj
 .text.serial_get_rx_buffer_count
                0x00000000       0x20 CMakeFiles/GRBL_STM32F103.elf.dir/App/grbl/serial.c.obj
 .text.serial_get_tx_buffer_count
                0x00000000       0x20 CMakeFiles/GRBL_STM32F103.elf.dir/App/grbl/serial.c.obj
 .text.HandleUartIT
                0x00000000       0xfc CMakeFiles/GRBL_STM32F103.elf.dir/App/grbl/serial.c.obj
 .bss.serial_tx_buffer
                0x00000000       0x80 CMakeFiles/GRBL_STM32F103.elf.dir/App/grbl/serial.c.obj
 .bss.serial_tx_buffer_head
                0x00000000        0x1 CMakeFiles/GRBL_STM32F103.elf.dir/App/grbl/serial.c.obj
 .bss.serial_tx_buffer_tail
                0x00000000        0x1 CMakeFiles/GRBL_STM32F103.elf.dir/App/grbl/serial.c.obj
 .text          0x00000000        0x0 CMakeFiles/GRBL_STM32F103.elf.dir/App/grbl/settings.c.obj
 .data          0x00000000        0x0 CMakeFiles/GRBL_STM32F103.elf.dir/App/grbl/settings.c.obj
 .bss           0x00000000        0x0 CMakeFiles/GRBL_STM32F103.elf.dir/App/grbl/settings.c.obj
 .text.write_global_settings
                0x00000000       0x1c CMakeFiles/GRBL_STM32F103.elf.dir/App/grbl/settings.c.obj
 .text.read_global_settings
                0x00000000       0x28 CMakeFiles/GRBL_STM32F103.elf.dir/App/grbl/settings.c.obj
 .text          0x00000000        0x0 CMakeFiles/GRBL_STM32F103.elf.dir/App/grbl/spindle_control.c.obj
 .data          0x00000000        0x0 CMakeFiles/GRBL_STM32F103.elf.dir/App/grbl/spindle_control.c.obj
 .bss           0x00000000        0x0 CMakeFiles/GRBL_STM32F103.elf.dir/App/grbl/spindle_control.c.obj
 .text          0x00000000        0x0 CMakeFiles/GRBL_STM32F103.elf.dir/App/grbl/stepper.c.obj
 .data          0x00000000        0x0 CMakeFiles/GRBL_STM32F103.elf.dir/App/grbl/stepper.c.obj
 .bss           0x00000000        0x0 CMakeFiles/GRBL_STM32F103.elf.dir/App/grbl/stepper.c.obj
 .text          0x00000000        0x0 CMakeFiles/GRBL_STM32F103.elf.dir/App/grbl/system.c.obj
 .data          0x00000000        0x0 CMakeFiles/GRBL_STM32F103.elf.dir/App/grbl/system.c.obj
 .bss           0x00000000        0x0 CMakeFiles/GRBL_STM32F103.elf.dir/App/grbl/system.c.obj
 .text.system_convert_axis_steps_to_mpos
                0x00000000       0x1c CMakeFiles/GRBL_STM32F103.elf.dir/App/grbl/system.c.obj
 .text.system_set_exec_motion_override_flag
                0x00000000       0x14 CMakeFiles/GRBL_STM32F103.elf.dir/App/grbl/system.c.obj
 .text          0x00000000        0x0 CMakeFiles/GRBL_STM32F103.elf.dir/Drivers/STM32F1xx_HAL_Driver/Src/stm32f1xx_hal.c.obj
 .data          0x00000000        0x0 CMakeFiles/GRBL_STM32F103.elf.dir/Drivers/STM32F1xx_HAL_Driver/Src/stm32f1xx_hal.c.obj
 .bss           0x00000000        0x0 CMakeFiles/GRBL_STM32F103.elf.dir/Drivers/STM32F1xx_HAL_Driver/Src/stm32f1xx_hal.c.obj
 .text.HAL_MspInit
                0x00000000        0x4 CMakeFiles/GRBL_STM32F103.elf.dir/Drivers/STM32F1xx_HAL_Driver/Src/stm32f1xx_hal.c.obj
 .text.HAL_MspDeInit
                0x00000000        0x4 CMakeFiles/GRBL_STM32F103.elf.dir/Drivers/STM32F1xx_HAL_Driver/Src/stm32f1xx_hal.c.obj
 .text.HAL_DeInit
                0x00000000       0x20 CMakeFiles/GRBL_STM32F103.elf.dir/Drivers/STM32F1xx_HAL_Driver/Src/stm32f1xx_hal.c.obj
 .text.HAL_GetTickPrio
                0x00000000        0xc CMakeFiles/GRBL_STM32F103.elf.dir/Drivers/STM32F1xx_HAL_Driver/Src/stm32f1xx_hal.c.obj
 .text.HAL_SetTickFreq
                0x00000000       0x28 CMakeFiles/GRBL_STM32F103.elf.dir/Drivers/STM32F1xx_HAL_Driver/Src/stm32f1xx_hal.c.obj
 .text.HAL_GetTickFreq
                0x00000000        0xc CMakeFiles/GRBL_STM32F103.elf.dir/Drivers/STM32F1xx_HAL_Driver/Src/stm32f1xx_hal.c.obj
 .text.HAL_SuspendTick
                0x00000000       0x10 CMakeFiles/GRBL_STM32F103.elf.dir/Drivers/STM32F1xx_HAL_Driver/Src/stm32f1xx_hal.c.obj
 .text.HAL_ResumeTick
                0x00000000       0x10 CMakeFiles/GRBL_STM32F103.elf.dir/Drivers/STM32F1xx_HAL_Driver/Src/stm32f1xx_hal.c.obj
 .text.HAL_GetHalVersion
                0x00000000        0x8 CMakeFiles/GRBL_STM32F103.elf.dir/Drivers/STM32F1xx_HAL_Driver/Src/stm32f1xx_hal.c.obj
 .text.HAL_GetREVID
                0x00000000        0xc CMakeFiles/GRBL_STM32F103.elf.dir/Drivers/STM32F1xx_HAL_Driver/Src/stm32f1xx_hal.c.obj
 .text.HAL_GetDEVID
                0x00000000       0x10 CMakeFiles/GRBL_STM32F103.elf.dir/Drivers/STM32F1xx_HAL_Driver/Src/stm32f1xx_hal.c.obj
 .text.HAL_GetUIDw0
                0x00000000        0xc CMakeFiles/GRBL_STM32F103.elf.dir/Drivers/STM32F1xx_HAL_Driver/Src/stm32f1xx_hal.c.obj
 .text.HAL_GetUIDw1
                0x00000000        0xc CMakeFiles/GRBL_STM32F103.elf.dir/Drivers/STM32F1xx_HAL_Driver/Src/stm32f1xx_hal.c.obj
 .text.HAL_GetUIDw2
                0x00000000        0xc CMakeFiles/GRBL_STM32F103.elf.dir/Drivers/STM32F1xx_HAL_Driver/Src/stm32f1xx_hal.c.obj
 .text.HAL_DBGMCU_EnableDBGSleepMode
                0x00000000       0x10 CMakeFiles/GRBL_STM32F103.elf.dir/Drivers/STM32F1xx_HAL_Driver/Src/stm32f1xx_hal.c.obj
 .text.HAL_DBGMCU_DisableDBGSleepMode
                0x00000000       0x10 CMakeFiles/GRBL_STM32F103.elf.dir/Drivers/STM32F1xx_HAL_Driver/Src/stm32f1xx_hal.c.obj
 .text.HAL_DBGMCU_EnableDBGStopMode
                0x00000000       0x10 CMakeFiles/GRBL_STM32F103.elf.dir/Drivers/STM32F1xx_HAL_Driver/Src/stm32f1xx_hal.c.obj
 .text.HAL_DBGMCU_DisableDBGStopMode
                0x00000000       0x10 CMakeFiles/GRBL_STM32F103.elf.dir/Drivers/STM32F1xx_HAL_Driver/Src/stm32f1xx_hal.c.obj
 .text.HAL_DBGMCU_EnableDBGStandbyMode
                0x00000000       0x10 CMakeFiles/GRBL_STM32F103.elf.dir/Drivers/STM32F1xx_HAL_Driver/Src/stm32f1xx_hal.c.obj
 .text.HAL_DBGMCU_DisableDBGStandbyMode
                0x00000000       0x10 CMakeFiles/GRBL_STM32F103.elf.dir/Drivers/STM32F1xx_HAL_Driver/Src/stm32f1xx_hal.c.obj
 .text          0x00000000        0x0 CMakeFiles/GRBL_STM32F103.elf.dir/Drivers/STM32F1xx_HAL_Driver/Src/stm32f1xx_hal_cortex.c.obj
 .data          0x00000000        0x0 CMakeFiles/GRBL_STM32F103.elf.dir/Drivers/STM32F1xx_HAL_Driver/Src/stm32f1xx_hal_cortex.c.obj
 .bss           0x00000000        0x0 CMakeFiles/GRBL_STM32F103.elf.dir/Drivers/STM32F1xx_HAL_Driver/Src/stm32f1xx_hal_cortex.c.obj
 .text.HAL_NVIC_DisableIRQ
                0x00000000       0x24 CMakeFiles/GRBL_STM32F103.elf.dir/Drivers/STM32F1xx_HAL_Driver/Src/stm32f1xx_hal_cortex.c.obj
 .text.HAL_NVIC_SystemReset
                0x00000000       0x24 CMakeFiles/GRBL_STM32F103.elf.dir/Drivers/STM32F1xx_HAL_Driver/Src/stm32f1xx_hal_cortex.c.obj
 .text.HAL_NVIC_GetPriorityGrouping
                0x00000000       0x10 CMakeFiles/GRBL_STM32F103.elf.dir/Drivers/STM32F1xx_HAL_Driver/Src/stm32f1xx_hal_cortex.c.obj
 .text.HAL_NVIC_GetPriority
                0x00000000       0x60 CMakeFiles/GRBL_STM32F103.elf.dir/Drivers/STM32F1xx_HAL_Driver/Src/stm32f1xx_hal_cortex.c.obj
 .text.HAL_NVIC_SetPendingIRQ
                0x00000000       0x1c CMakeFiles/GRBL_STM32F103.elf.dir/Drivers/STM32F1xx_HAL_Driver/Src/stm32f1xx_hal_cortex.c.obj
 .text.HAL_NVIC_GetPendingIRQ
                0x00000000       0x24 CMakeFiles/GRBL_STM32F103.elf.dir/Drivers/STM32F1xx_HAL_Driver/Src/stm32f1xx_hal_cortex.c.obj
 .text.HAL_NVIC_GetActive
                0x00000000       0x24 CMakeFiles/GRBL_STM32F103.elf.dir/Drivers/STM32F1xx_HAL_Driver/Src/stm32f1xx_hal_cortex.c.obj
 .text.HAL_SYSTICK_CLKSourceConfig
                0x00000000       0x18 CMakeFiles/GRBL_STM32F103.elf.dir/Drivers/STM32F1xx_HAL_Driver/Src/stm32f1xx_hal_cortex.c.obj
 .text.HAL_SYSTICK_Callback
                0x00000000        0x4 CMakeFiles/GRBL_STM32F103.elf.dir/Drivers/STM32F1xx_HAL_Driver/Src/stm32f1xx_hal_cortex.c.obj
 .text.HAL_SYSTICK_IRQHandler
                0x00000000        0x8 CMakeFiles/GRBL_STM32F103.elf.dir/Drivers/STM32F1xx_HAL_Driver/Src/stm32f1xx_hal_cortex.c.obj
 .text          0x00000000        0x0 CMakeFiles/GRBL_STM32F103.elf.dir/Drivers/STM32F1xx_HAL_Driver/Src/stm32f1xx_hal_dma.c.obj
 .data          0x00000000        0x0 CMakeFiles/GRBL_STM32F103.elf.dir/Drivers/STM32F1xx_HAL_Driver/Src/stm32f1xx_hal_dma.c.obj
 .bss           0x00000000        0x0 CMakeFiles/GRBL_STM32F103.elf.dir/Drivers/STM32F1xx_HAL_Driver/Src/stm32f1xx_hal_dma.c.obj
 .text.HAL_DMA_Init
                0x00000000       0x64 CMakeFiles/GRBL_STM32F103.elf.dir/Drivers/STM32F1xx_HAL_Driver/Src/stm32f1xx_hal_dma.c.obj
 .text.HAL_DMA_DeInit
                0x00000000       0x58 CMakeFiles/GRBL_STM32F103.elf.dir/Drivers/STM32F1xx_HAL_Driver/Src/stm32f1xx_hal_dma.c.obj
 .text.HAL_DMA_Start
                0x00000000       0x68 CMakeFiles/GRBL_STM32F103.elf.dir/Drivers/STM32F1xx_HAL_Driver/Src/stm32f1xx_hal_dma.c.obj
 .text.HAL_DMA_Start_IT
                0x00000000       0x84 CMakeFiles/GRBL_STM32F103.elf.dir/Drivers/STM32F1xx_HAL_Driver/Src/stm32f1xx_hal_dma.c.obj
 .text.HAL_DMA_Abort
                0x00000000       0x44 CMakeFiles/GRBL_STM32F103.elf.dir/Drivers/STM32F1xx_HAL_Driver/Src/stm32f1xx_hal_dma.c.obj
 .text.HAL_DMA_Abort_IT
                0x00000000       0x94 CMakeFiles/GRBL_STM32F103.elf.dir/Drivers/STM32F1xx_HAL_Driver/Src/stm32f1xx_hal_dma.c.obj
 .text.HAL_DMA_PollForTransfer
                0x00000000      0x330 CMakeFiles/GRBL_STM32F103.elf.dir/Drivers/STM32F1xx_HAL_Driver/Src/stm32f1xx_hal_dma.c.obj
 .text.HAL_DMA_IRQHandler
                0x00000000      0x128 CMakeFiles/GRBL_STM32F103.elf.dir/Drivers/STM32F1xx_HAL_Driver/Src/stm32f1xx_hal_dma.c.obj
 .text.HAL_DMA_RegisterCallback
                0x00000000       0x44 CMakeFiles/GRBL_STM32F103.elf.dir/Drivers/STM32F1xx_HAL_Driver/Src/stm32f1xx_hal_dma.c.obj
 .text.HAL_DMA_UnRegisterCallback
                0x00000000       0x5c CMakeFiles/GRBL_STM32F103.elf.dir/Drivers/STM32F1xx_HAL_Driver/Src/stm32f1xx_hal_dma.c.obj
 .text.HAL_DMA_GetState
                0x00000000        0x8 CMakeFiles/GRBL_STM32F103.elf.dir/Drivers/STM32F1xx_HAL_Driver/Src/stm32f1xx_hal_dma.c.obj
 .text.HAL_DMA_GetError
                0x00000000        0x4 CMakeFiles/GRBL_STM32F103.elf.dir/Drivers/STM32F1xx_HAL_Driver/Src/stm32f1xx_hal_dma.c.obj
 .debug_info    0x00000000      0x93c CMakeFiles/GRBL_STM32F103.elf.dir/Drivers/STM32F1xx_HAL_Driver/Src/stm32f1xx_hal_dma.c.obj
 .debug_abbrev  0x00000000      0x27d CMakeFiles/GRBL_STM32F103.elf.dir/Drivers/STM32F1xx_HAL_Driver/Src/stm32f1xx_hal_dma.c.obj
 .debug_loc     0x00000000      0xa9d CMakeFiles/GRBL_STM32F103.elf.dir/Drivers/STM32F1xx_HAL_Driver/Src/stm32f1xx_hal_dma.c.obj
 .debug_aranges
                0x00000000       0x78 CMakeFiles/GRBL_STM32F103.elf.dir/Drivers/STM32F1xx_HAL_Driver/Src/stm32f1xx_hal_dma.c.obj
 .debug_ranges  0x00000000       0xc8 CMakeFiles/GRBL_STM32F103.elf.dir/Drivers/STM32F1xx_HAL_Driver/Src/stm32f1xx_hal_dma.c.obj
 .debug_line    0x00000000      0xd9e CMakeFiles/GRBL_STM32F103.elf.dir/Drivers/STM32F1xx_HAL_Driver/Src/stm32f1xx_hal_dma.c.obj
 .debug_str     0x00000000      0x735 CMakeFiles/GRBL_STM32F103.elf.dir/Drivers/STM32F1xx_HAL_Driver/Src/stm32f1xx_hal_dma.c.obj
 .comment       0x00000000       0x7a CMakeFiles/GRBL_STM32F103.elf.dir/Drivers/STM32F1xx_HAL_Driver/Src/stm32f1xx_hal_dma.c.obj
 .debug_frame   0x00000000      0x198 CMakeFiles/GRBL_STM32F103.elf.dir/Drivers/STM32F1xx_HAL_Driver/Src/stm32f1xx_hal_dma.c.obj
 .ARM.attributes
                0x00000000       0x2d CMakeFiles/GRBL_STM32F103.elf.dir/Drivers/STM32F1xx_HAL_Driver/Src/stm32f1xx_hal_dma.c.obj
 .text          0x00000000        0x0 CMakeFiles/GRBL_STM32F103.elf.dir/Drivers/STM32F1xx_HAL_Driver/Src/stm32f1xx_hal_exti.c.obj
 .data          0x00000000        0x0 CMakeFiles/GRBL_STM32F103.elf.dir/Drivers/STM32F1xx_HAL_Driver/Src/stm32f1xx_hal_exti.c.obj
 .bss           0x00000000        0x0 CMakeFiles/GRBL_STM32F103.elf.dir/Drivers/STM32F1xx_HAL_Driver/Src/stm32f1xx_hal_exti.c.obj
 .text.HAL_EXTI_SetConfigLine
                0x00000000       0xa8 CMakeFiles/GRBL_STM32F103.elf.dir/Drivers/STM32F1xx_HAL_Driver/Src/stm32f1xx_hal_exti.c.obj
 .text.HAL_EXTI_GetConfigLine
                0x00000000       0x94 CMakeFiles/GRBL_STM32F103.elf.dir/Drivers/STM32F1xx_HAL_Driver/Src/stm32f1xx_hal_exti.c.obj
 .text.HAL_EXTI_ClearConfigLine
                0x00000000       0x74 CMakeFiles/GRBL_STM32F103.elf.dir/Drivers/STM32F1xx_HAL_Driver/Src/stm32f1xx_hal_exti.c.obj
 .text.HAL_EXTI_RegisterCallback
                0x00000000        0xc CMakeFiles/GRBL_STM32F103.elf.dir/Drivers/STM32F1xx_HAL_Driver/Src/stm32f1xx_hal_exti.c.obj
 .text.HAL_EXTI_GetHandle
                0x00000000        0xc CMakeFiles/GRBL_STM32F103.elf.dir/Drivers/STM32F1xx_HAL_Driver/Src/stm32f1xx_hal_exti.c.obj
 .text.HAL_EXTI_IRQHandler
                0x00000000       0x28 CMakeFiles/GRBL_STM32F103.elf.dir/Drivers/STM32F1xx_HAL_Driver/Src/stm32f1xx_hal_exti.c.obj
 .text.HAL_EXTI_GetPending
                0x00000000       0x1c CMakeFiles/GRBL_STM32F103.elf.dir/Drivers/STM32F1xx_HAL_Driver/Src/stm32f1xx_hal_exti.c.obj
 .text.HAL_EXTI_ClearPending
                0x00000000       0x14 CMakeFiles/GRBL_STM32F103.elf.dir/Drivers/STM32F1xx_HAL_Driver/Src/stm32f1xx_hal_exti.c.obj
 .text.HAL_EXTI_GenerateSWI
                0x00000000       0x14 CMakeFiles/GRBL_STM32F103.elf.dir/Drivers/STM32F1xx_HAL_Driver/Src/stm32f1xx_hal_exti.c.obj
 .debug_info    0x00000000      0x693 CMakeFiles/GRBL_STM32F103.elf.dir/Drivers/STM32F1xx_HAL_Driver/Src/stm32f1xx_hal_exti.c.obj
 .debug_abbrev  0x00000000      0x20a CMakeFiles/GRBL_STM32F103.elf.dir/Drivers/STM32F1xx_HAL_Driver/Src/stm32f1xx_hal_exti.c.obj
 .debug_loc     0x00000000      0x57d CMakeFiles/GRBL_STM32F103.elf.dir/Drivers/STM32F1xx_HAL_Driver/Src/stm32f1xx_hal_exti.c.obj
 .debug_aranges
                0x00000000       0x60 CMakeFiles/GRBL_STM32F103.elf.dir/Drivers/STM32F1xx_HAL_Driver/Src/stm32f1xx_hal_exti.c.obj
 .debug_ranges  0x00000000       0x50 CMakeFiles/GRBL_STM32F103.elf.dir/Drivers/STM32F1xx_HAL_Driver/Src/stm32f1xx_hal_exti.c.obj
 .debug_line    0x00000000      0x6cb CMakeFiles/GRBL_STM32F103.elf.dir/Drivers/STM32F1xx_HAL_Driver/Src/stm32f1xx_hal_exti.c.obj
 .debug_str     0x00000000      0x50e CMakeFiles/GRBL_STM32F103.elf.dir/Drivers/STM32F1xx_HAL_Driver/Src/stm32f1xx_hal_exti.c.obj
 .comment       0x00000000       0x7a CMakeFiles/GRBL_STM32F103.elf.dir/Drivers/STM32F1xx_HAL_Driver/Src/stm32f1xx_hal_exti.c.obj
 .debug_frame   0x00000000      0x108 CMakeFiles/GRBL_STM32F103.elf.dir/Drivers/STM32F1xx_HAL_Driver/Src/stm32f1xx_hal_exti.c.obj
 .ARM.attributes
                0x00000000       0x2d CMakeFiles/GRBL_STM32F103.elf.dir/Drivers/STM32F1xx_HAL_Driver/Src/stm32f1xx_hal_exti.c.obj
 .text          0x00000000        0x0 CMakeFiles/GRBL_STM32F103.elf.dir/Drivers/STM32F1xx_HAL_Driver/Src/stm32f1xx_hal_flash.c.obj
 .data          0x00000000        0x0 CMakeFiles/GRBL_STM32F103.elf.dir/Drivers/STM32F1xx_HAL_Driver/Src/stm32f1xx_hal_flash.c.obj
 .bss           0x00000000        0x0 CMakeFiles/GRBL_STM32F103.elf.dir/Drivers/STM32F1xx_HAL_Driver/Src/stm32f1xx_hal_flash.c.obj
 .text.HAL_FLASH_Program_IT
                0x00000000       0x70 CMakeFiles/GRBL_STM32F103.elf.dir/Drivers/STM32F1xx_HAL_Driver/Src/stm32f1xx_hal_flash.c.obj
 .text.HAL_FLASH_EndOfOperationCallback
                0x00000000        0x4 CMakeFiles/GRBL_STM32F103.elf.dir/Drivers/STM32F1xx_HAL_Driver/Src/stm32f1xx_hal_flash.c.obj
 .text.HAL_FLASH_OperationErrorCallback
                0x00000000        0x4 CMakeFiles/GRBL_STM32F103.elf.dir/Drivers/STM32F1xx_HAL_Driver/Src/stm32f1xx_hal_flash.c.obj
 .text.HAL_FLASH_IRQHandler
                0x00000000      0x164 CMakeFiles/GRBL_STM32F103.elf.dir/Drivers/STM32F1xx_HAL_Driver/Src/stm32f1xx_hal_flash.c.obj
 .text.HAL_FLASH_OB_Unlock
                0x00000000       0x24 CMakeFiles/GRBL_STM32F103.elf.dir/Drivers/STM32F1xx_HAL_Driver/Src/stm32f1xx_hal_flash.c.obj
 .text.HAL_FLASH_OB_Lock
                0x00000000       0x14 CMakeFiles/GRBL_STM32F103.elf.dir/Drivers/STM32F1xx_HAL_Driver/Src/stm32f1xx_hal_flash.c.obj
 .text.HAL_FLASH_OB_Launch
                0x00000000        0x4 CMakeFiles/GRBL_STM32F103.elf.dir/Drivers/STM32F1xx_HAL_Driver/Src/stm32f1xx_hal_flash.c.obj
 .text.HAL_FLASH_GetError
                0x00000000        0xc CMakeFiles/GRBL_STM32F103.elf.dir/Drivers/STM32F1xx_HAL_Driver/Src/stm32f1xx_hal_flash.c.obj
 .text          0x00000000        0x0 CMakeFiles/GRBL_STM32F103.elf.dir/Drivers/STM32F1xx_HAL_Driver/Src/stm32f1xx_hal_flash_ex.c.obj
 .data          0x00000000        0x0 CMakeFiles/GRBL_STM32F103.elf.dir/Drivers/STM32F1xx_HAL_Driver/Src/stm32f1xx_hal_flash_ex.c.obj
 .bss           0x00000000        0x0 CMakeFiles/GRBL_STM32F103.elf.dir/Drivers/STM32F1xx_HAL_Driver/Src/stm32f1xx_hal_flash_ex.c.obj
 .text.HAL_FLASHEx_Erase
                0x00000000       0xc4 CMakeFiles/GRBL_STM32F103.elf.dir/Drivers/STM32F1xx_HAL_Driver/Src/stm32f1xx_hal_flash_ex.c.obj
 .text.HAL_FLASHEx_Erase_IT
                0x00000000       0x74 CMakeFiles/GRBL_STM32F103.elf.dir/Drivers/STM32F1xx_HAL_Driver/Src/stm32f1xx_hal_flash_ex.c.obj
 .text.HAL_FLASHEx_OBErase
                0x00000000       0xac CMakeFiles/GRBL_STM32F103.elf.dir/Drivers/STM32F1xx_HAL_Driver/Src/stm32f1xx_hal_flash_ex.c.obj
 .text.HAL_FLASHEx_OBProgram
                0x00000000      0x2bc CMakeFiles/GRBL_STM32F103.elf.dir/Drivers/STM32F1xx_HAL_Driver/Src/stm32f1xx_hal_flash_ex.c.obj
 .text.HAL_FLASHEx_OBGetConfig
                0x00000000       0x28 CMakeFiles/GRBL_STM32F103.elf.dir/Drivers/STM32F1xx_HAL_Driver/Src/stm32f1xx_hal_flash_ex.c.obj
 .text.HAL_FLASHEx_OBGetUserData
                0x00000000       0x1c CMakeFiles/GRBL_STM32F103.elf.dir/Drivers/STM32F1xx_HAL_Driver/Src/stm32f1xx_hal_flash_ex.c.obj
 .text          0x00000000        0x0 CMakeFiles/GRBL_STM32F103.elf.dir/Drivers/STM32F1xx_HAL_Driver/Src/stm32f1xx_hal_gpio.c.obj
 .data          0x00000000        0x0 CMakeFiles/GRBL_STM32F103.elf.dir/Drivers/STM32F1xx_HAL_Driver/Src/stm32f1xx_hal_gpio.c.obj
 .bss           0x00000000        0x0 CMakeFiles/GRBL_STM32F103.elf.dir/Drivers/STM32F1xx_HAL_Driver/Src/stm32f1xx_hal_gpio.c.obj
 .text.HAL_GPIO_DeInit
                0x00000000      0x100 CMakeFiles/GRBL_STM32F103.elf.dir/Drivers/STM32F1xx_HAL_Driver/Src/stm32f1xx_hal_gpio.c.obj
 .text.HAL_GPIO_ReadPin
                0x00000000        0xc CMakeFiles/GRBL_STM32F103.elf.dir/Drivers/STM32F1xx_HAL_Driver/Src/stm32f1xx_hal_gpio.c.obj
 .text.HAL_GPIO_TogglePin
                0x00000000        0xc CMakeFiles/GRBL_STM32F103.elf.dir/Drivers/STM32F1xx_HAL_Driver/Src/stm32f1xx_hal_gpio.c.obj
 .text.HAL_GPIO_LockPin
                0x00000000       0x2c CMakeFiles/GRBL_STM32F103.elf.dir/Drivers/STM32F1xx_HAL_Driver/Src/stm32f1xx_hal_gpio.c.obj
 .text          0x00000000        0x0 CMakeFiles/GRBL_STM32F103.elf.dir/Drivers/STM32F1xx_HAL_Driver/Src/stm32f1xx_hal_gpio_ex.c.obj
 .data          0x00000000        0x0 CMakeFiles/GRBL_STM32F103.elf.dir/Drivers/STM32F1xx_HAL_Driver/Src/stm32f1xx_hal_gpio_ex.c.obj
 .bss           0x00000000        0x0 CMakeFiles/GRBL_STM32F103.elf.dir/Drivers/STM32F1xx_HAL_Driver/Src/stm32f1xx_hal_gpio_ex.c.obj
 .text.HAL_GPIOEx_ConfigEventout
                0x00000000       0x14 CMakeFiles/GRBL_STM32F103.elf.dir/Drivers/STM32F1xx_HAL_Driver/Src/stm32f1xx_hal_gpio_ex.c.obj
 .text.HAL_GPIOEx_EnableEventout
                0x00000000       0x10 CMakeFiles/GRBL_STM32F103.elf.dir/Drivers/STM32F1xx_HAL_Driver/Src/stm32f1xx_hal_gpio_ex.c.obj
 .text.HAL_GPIOEx_DisableEventout
                0x00000000       0x10 CMakeFiles/GRBL_STM32F103.elf.dir/Drivers/STM32F1xx_HAL_Driver/Src/stm32f1xx_hal_gpio_ex.c.obj
 .debug_info    0x00000000      0x22f CMakeFiles/GRBL_STM32F103.elf.dir/Drivers/STM32F1xx_HAL_Driver/Src/stm32f1xx_hal_gpio_ex.c.obj
 .debug_abbrev  0x00000000      0x10f CMakeFiles/GRBL_STM32F103.elf.dir/Drivers/STM32F1xx_HAL_Driver/Src/stm32f1xx_hal_gpio_ex.c.obj
 .debug_aranges
                0x00000000       0x30 CMakeFiles/GRBL_STM32F103.elf.dir/Drivers/STM32F1xx_HAL_Driver/Src/stm32f1xx_hal_gpio_ex.c.obj
 .debug_ranges  0x00000000       0x20 CMakeFiles/GRBL_STM32F103.elf.dir/Drivers/STM32F1xx_HAL_Driver/Src/stm32f1xx_hal_gpio_ex.c.obj
 .debug_line    0x00000000      0x28c CMakeFiles/GRBL_STM32F103.elf.dir/Drivers/STM32F1xx_HAL_Driver/Src/stm32f1xx_hal_gpio_ex.c.obj
 .debug_str     0x00000000      0x38f CMakeFiles/GRBL_STM32F103.elf.dir/Drivers/STM32F1xx_HAL_Driver/Src/stm32f1xx_hal_gpio_ex.c.obj
 .comment       0x00000000       0x7a CMakeFiles/GRBL_STM32F103.elf.dir/Drivers/STM32F1xx_HAL_Driver/Src/stm32f1xx_hal_gpio_ex.c.obj
 .debug_frame   0x00000000       0x40 CMakeFiles/GRBL_STM32F103.elf.dir/Drivers/STM32F1xx_HAL_Driver/Src/stm32f1xx_hal_gpio_ex.c.obj
 .ARM.attributes
                0x00000000       0x2d CMakeFiles/GRBL_STM32F103.elf.dir/Drivers/STM32F1xx_HAL_Driver/Src/stm32f1xx_hal_gpio_ex.c.obj
 .text          0x00000000        0x0 CMakeFiles/GRBL_STM32F103.elf.dir/Drivers/STM32F1xx_HAL_Driver/Src/stm32f1xx_hal_pwr.c.obj
 .data          0x00000000        0x0 CMakeFiles/GRBL_STM32F103.elf.dir/Drivers/STM32F1xx_HAL_Driver/Src/stm32f1xx_hal_pwr.c.obj
 .bss           0x00000000        0x0 CMakeFiles/GRBL_STM32F103.elf.dir/Drivers/STM32F1xx_HAL_Driver/Src/stm32f1xx_hal_pwr.c.obj
 .text.PWR_OverloadWfe
                0x00000000        0x8 CMakeFiles/GRBL_STM32F103.elf.dir/Drivers/STM32F1xx_HAL_Driver/Src/stm32f1xx_hal_pwr.c.obj
 .text.HAL_PWR_DeInit
                0x00000000       0x18 CMakeFiles/GRBL_STM32F103.elf.dir/Drivers/STM32F1xx_HAL_Driver/Src/stm32f1xx_hal_pwr.c.obj
 .text.HAL_PWR_EnableBkUpAccess
                0x00000000        0xc CMakeFiles/GRBL_STM32F103.elf.dir/Drivers/STM32F1xx_HAL_Driver/Src/stm32f1xx_hal_pwr.c.obj
 .text.HAL_PWR_DisableBkUpAccess
                0x00000000        0xc CMakeFiles/GRBL_STM32F103.elf.dir/Drivers/STM32F1xx_HAL_Driver/Src/stm32f1xx_hal_pwr.c.obj
 .text.HAL_PWR_ConfigPVD
                0x00000000       0x78 CMakeFiles/GRBL_STM32F103.elf.dir/Drivers/STM32F1xx_HAL_Driver/Src/stm32f1xx_hal_pwr.c.obj
 .text.HAL_PWR_EnablePVD
                0x00000000        0xc CMakeFiles/GRBL_STM32F103.elf.dir/Drivers/STM32F1xx_HAL_Driver/Src/stm32f1xx_hal_pwr.c.obj
 .text.HAL_PWR_DisablePVD
                0x00000000        0xc CMakeFiles/GRBL_STM32F103.elf.dir/Drivers/STM32F1xx_HAL_Driver/Src/stm32f1xx_hal_pwr.c.obj
 .text.HAL_PWR_EnableWakeUpPin
                0x00000000       0x18 CMakeFiles/GRBL_STM32F103.elf.dir/Drivers/STM32F1xx_HAL_Driver/Src/stm32f1xx_hal_pwr.c.obj
 .text.HAL_PWR_DisableWakeUpPin
                0x00000000       0x18 CMakeFiles/GRBL_STM32F103.elf.dir/Drivers/STM32F1xx_HAL_Driver/Src/stm32f1xx_hal_pwr.c.obj
 .text.HAL_PWR_EnterSLEEPMode
                0x00000000       0x20 CMakeFiles/GRBL_STM32F103.elf.dir/Drivers/STM32F1xx_HAL_Driver/Src/stm32f1xx_hal_pwr.c.obj
 .text.HAL_PWR_EnterSTOPMode
                0x00000000       0x48 CMakeFiles/GRBL_STM32F103.elf.dir/Drivers/STM32F1xx_HAL_Driver/Src/stm32f1xx_hal_pwr.c.obj
 .text.HAL_PWR_EnterSTANDBYMode
                0x00000000       0x20 CMakeFiles/GRBL_STM32F103.elf.dir/Drivers/STM32F1xx_HAL_Driver/Src/stm32f1xx_hal_pwr.c.obj
 .text.HAL_PWR_EnableSleepOnExit
                0x00000000       0x10 CMakeFiles/GRBL_STM32F103.elf.dir/Drivers/STM32F1xx_HAL_Driver/Src/stm32f1xx_hal_pwr.c.obj
 .text.HAL_PWR_DisableSleepOnExit
                0x00000000       0x10 CMakeFiles/GRBL_STM32F103.elf.dir/Drivers/STM32F1xx_HAL_Driver/Src/stm32f1xx_hal_pwr.c.obj
 .text.HAL_PWR_EnableSEVOnPend
                0x00000000       0x10 CMakeFiles/GRBL_STM32F103.elf.dir/Drivers/STM32F1xx_HAL_Driver/Src/stm32f1xx_hal_pwr.c.obj
 .text.HAL_PWR_DisableSEVOnPend
                0x00000000       0x10 CMakeFiles/GRBL_STM32F103.elf.dir/Drivers/STM32F1xx_HAL_Driver/Src/stm32f1xx_hal_pwr.c.obj
 .text.HAL_PWR_PVDCallback
                0x00000000        0x4 CMakeFiles/GRBL_STM32F103.elf.dir/Drivers/STM32F1xx_HAL_Driver/Src/stm32f1xx_hal_pwr.c.obj
 .text.HAL_PWR_PVD_IRQHandler
                0x00000000       0x1c CMakeFiles/GRBL_STM32F103.elf.dir/Drivers/STM32F1xx_HAL_Driver/Src/stm32f1xx_hal_pwr.c.obj
 .debug_info    0x00000000      0x762 CMakeFiles/GRBL_STM32F103.elf.dir/Drivers/STM32F1xx_HAL_Driver/Src/stm32f1xx_hal_pwr.c.obj
 .debug_abbrev  0x00000000      0x204 CMakeFiles/GRBL_STM32F103.elf.dir/Drivers/STM32F1xx_HAL_Driver/Src/stm32f1xx_hal_pwr.c.obj
 .debug_loc     0x00000000       0xe3 CMakeFiles/GRBL_STM32F103.elf.dir/Drivers/STM32F1xx_HAL_Driver/Src/stm32f1xx_hal_pwr.c.obj
 .debug_aranges
                0x00000000       0xa8 CMakeFiles/GRBL_STM32F103.elf.dir/Drivers/STM32F1xx_HAL_Driver/Src/stm32f1xx_hal_pwr.c.obj
 .debug_ranges  0x00000000       0x98 CMakeFiles/GRBL_STM32F103.elf.dir/Drivers/STM32F1xx_HAL_Driver/Src/stm32f1xx_hal_pwr.c.obj
 .debug_line    0x00000000      0x51f CMakeFiles/GRBL_STM32F103.elf.dir/Drivers/STM32F1xx_HAL_Driver/Src/stm32f1xx_hal_pwr.c.obj
 .debug_str     0x00000000      0x5c1 CMakeFiles/GRBL_STM32F103.elf.dir/Drivers/STM32F1xx_HAL_Driver/Src/stm32f1xx_hal_pwr.c.obj
 .comment       0x00000000       0x7a CMakeFiles/GRBL_STM32F103.elf.dir/Drivers/STM32F1xx_HAL_Driver/Src/stm32f1xx_hal_pwr.c.obj
 .debug_frame   0x00000000      0x150 CMakeFiles/GRBL_STM32F103.elf.dir/Drivers/STM32F1xx_HAL_Driver/Src/stm32f1xx_hal_pwr.c.obj
 .ARM.attributes
                0x00000000       0x2d CMakeFiles/GRBL_STM32F103.elf.dir/Drivers/STM32F1xx_HAL_Driver/Src/stm32f1xx_hal_pwr.c.obj
 .text          0x00000000        0x0 CMakeFiles/GRBL_STM32F103.elf.dir/Drivers/STM32F1xx_HAL_Driver/Src/stm32f1xx_hal_rcc.c.obj
 .data          0x00000000        0x0 CMakeFiles/GRBL_STM32F103.elf.dir/Drivers/STM32F1xx_HAL_Driver/Src/stm32f1xx_hal_rcc.c.obj
 .bss           0x00000000        0x0 CMakeFiles/GRBL_STM32F103.elf.dir/Drivers/STM32F1xx_HAL_Driver/Src/stm32f1xx_hal_rcc.c.obj
 .text.HAL_RCC_DeInit
                0x00000000       0xe4 CMakeFiles/GRBL_STM32F103.elf.dir/Drivers/STM32F1xx_HAL_Driver/Src/stm32f1xx_hal_rcc.c.obj
 .text.HAL_RCC_MCOConfig
                0x00000000       0x4c CMakeFiles/GRBL_STM32F103.elf.dir/Drivers/STM32F1xx_HAL_Driver/Src/stm32f1xx_hal_rcc.c.obj
 .text.HAL_RCC_EnableCSS
                0x00000000        0xc CMakeFiles/GRBL_STM32F103.elf.dir/Drivers/STM32F1xx_HAL_Driver/Src/stm32f1xx_hal_rcc.c.obj
 .text.HAL_RCC_DisableCSS
                0x00000000        0xc CMakeFiles/GRBL_STM32F103.elf.dir/Drivers/STM32F1xx_HAL_Driver/Src/stm32f1xx_hal_rcc.c.obj
 .text.HAL_RCC_GetSysClockFreq
                0x00000000       0x6c CMakeFiles/GRBL_STM32F103.elf.dir/Drivers/STM32F1xx_HAL_Driver/Src/stm32f1xx_hal_rcc.c.obj
 .text.HAL_RCC_GetHCLKFreq
                0x00000000        0xc CMakeFiles/GRBL_STM32F103.elf.dir/Drivers/STM32F1xx_HAL_Driver/Src/stm32f1xx_hal_rcc.c.obj
 .text.HAL_RCC_GetPCLK1Freq
                0x00000000       0x20 CMakeFiles/GRBL_STM32F103.elf.dir/Drivers/STM32F1xx_HAL_Driver/Src/stm32f1xx_hal_rcc.c.obj
 .text.HAL_RCC_GetPCLK2Freq
                0x00000000       0x20 CMakeFiles/GRBL_STM32F103.elf.dir/Drivers/STM32F1xx_HAL_Driver/Src/stm32f1xx_hal_rcc.c.obj
 .text.HAL_RCC_GetOscConfig
                0x00000000       0x84 CMakeFiles/GRBL_STM32F103.elf.dir/Drivers/STM32F1xx_HAL_Driver/Src/stm32f1xx_hal_rcc.c.obj
 .text.HAL_RCC_GetClockConfig
                0x00000000       0x40 CMakeFiles/GRBL_STM32F103.elf.dir/Drivers/STM32F1xx_HAL_Driver/Src/stm32f1xx_hal_rcc.c.obj
 .text.HAL_RCC_CSSCallback
                0x00000000        0x4 CMakeFiles/GRBL_STM32F103.elf.dir/Drivers/STM32F1xx_HAL_Driver/Src/stm32f1xx_hal_rcc.c.obj
 .text.HAL_RCC_NMI_IRQHandler
                0x00000000       0x20 CMakeFiles/GRBL_STM32F103.elf.dir/Drivers/STM32F1xx_HAL_Driver/Src/stm32f1xx_hal_rcc.c.obj
 .text          0x00000000        0x0 CMakeFiles/GRBL_STM32F103.elf.dir/Drivers/STM32F1xx_HAL_Driver/Src/stm32f1xx_hal_rcc_ex.c.obj
 .data          0x00000000        0x0 CMakeFiles/GRBL_STM32F103.elf.dir/Drivers/STM32F1xx_HAL_Driver/Src/stm32f1xx_hal_rcc_ex.c.obj
 .bss           0x00000000        0x0 CMakeFiles/GRBL_STM32F103.elf.dir/Drivers/STM32F1xx_HAL_Driver/Src/stm32f1xx_hal_rcc_ex.c.obj
 .text.HAL_RCCEx_PeriphCLKConfig
                0x00000000      0x100 CMakeFiles/GRBL_STM32F103.elf.dir/Drivers/STM32F1xx_HAL_Driver/Src/stm32f1xx_hal_rcc_ex.c.obj
 .text.HAL_RCCEx_GetPeriphCLKConfig
                0x00000000       0x24 CMakeFiles/GRBL_STM32F103.elf.dir/Drivers/STM32F1xx_HAL_Driver/Src/stm32f1xx_hal_rcc_ex.c.obj
 .rodata.HAL_RCCEx_GetPeriphCLKFreq.str1.4
                0x00000000       0x11 CMakeFiles/GRBL_STM32F103.elf.dir/Drivers/STM32F1xx_HAL_Driver/Src/stm32f1xx_hal_rcc_ex.c.obj
 .text.HAL_RCCEx_GetPeriphCLKFreq
                0x00000000       0xf0 CMakeFiles/GRBL_STM32F103.elf.dir/Drivers/STM32F1xx_HAL_Driver/Src/stm32f1xx_hal_rcc_ex.c.obj
 .debug_info    0x00000000      0x4e6 CMakeFiles/GRBL_STM32F103.elf.dir/Drivers/STM32F1xx_HAL_Driver/Src/stm32f1xx_hal_rcc_ex.c.obj
 .debug_abbrev  0x00000000      0x1f6 CMakeFiles/GRBL_STM32F103.elf.dir/Drivers/STM32F1xx_HAL_Driver/Src/stm32f1xx_hal_rcc_ex.c.obj
 .debug_loc     0x00000000      0x339 CMakeFiles/GRBL_STM32F103.elf.dir/Drivers/STM32F1xx_HAL_Driver/Src/stm32f1xx_hal_rcc_ex.c.obj
 .debug_aranges
                0x00000000       0x30 CMakeFiles/GRBL_STM32F103.elf.dir/Drivers/STM32F1xx_HAL_Driver/Src/stm32f1xx_hal_rcc_ex.c.obj
 .debug_ranges  0x00000000       0x58 CMakeFiles/GRBL_STM32F103.elf.dir/Drivers/STM32F1xx_HAL_Driver/Src/stm32f1xx_hal_rcc_ex.c.obj
 .debug_line    0x00000000      0x58c CMakeFiles/GRBL_STM32F103.elf.dir/Drivers/STM32F1xx_HAL_Driver/Src/stm32f1xx_hal_rcc_ex.c.obj
 .debug_str     0x00000000      0x4f9 CMakeFiles/GRBL_STM32F103.elf.dir/Drivers/STM32F1xx_HAL_Driver/Src/stm32f1xx_hal_rcc_ex.c.obj
 .comment       0x00000000       0x7a CMakeFiles/GRBL_STM32F103.elf.dir/Drivers/STM32F1xx_HAL_Driver/Src/stm32f1xx_hal_rcc_ex.c.obj
 .debug_frame   0x00000000       0x78 CMakeFiles/GRBL_STM32F103.elf.dir/Drivers/STM32F1xx_HAL_Driver/Src/stm32f1xx_hal_rcc_ex.c.obj
 .ARM.attributes
                0x00000000       0x2d CMakeFiles/GRBL_STM32F103.elf.dir/Drivers/STM32F1xx_HAL_Driver/Src/stm32f1xx_hal_rcc_ex.c.obj
 .text          0x00000000        0x0 CMakeFiles/GRBL_STM32F103.elf.dir/Drivers/STM32F1xx_HAL_Driver/Src/stm32f1xx_hal_tim.c.obj
 .data          0x00000000        0x0 CMakeFiles/GRBL_STM32F103.elf.dir/Drivers/STM32F1xx_HAL_Driver/Src/stm32f1xx_hal_tim.c.obj
 .bss           0x00000000        0x0 CMakeFiles/GRBL_STM32F103.elf.dir/Drivers/STM32F1xx_HAL_Driver/Src/stm32f1xx_hal_tim.c.obj
 .text.HAL_TIM_Base_MspInit
                0x00000000        0x4 CMakeFiles/GRBL_STM32F103.elf.dir/Drivers/STM32F1xx_HAL_Driver/Src/stm32f1xx_hal_tim.c.obj
 .text.HAL_TIM_Base_Init
                0x00000000       0xa4 CMakeFiles/GRBL_STM32F103.elf.dir/Drivers/STM32F1xx_HAL_Driver/Src/stm32f1xx_hal_tim.c.obj
 .text.HAL_TIM_Base_MspDeInit
                0x00000000        0x4 CMakeFiles/GRBL_STM32F103.elf.dir/Drivers/STM32F1xx_HAL_Driver/Src/stm32f1xx_hal_tim.c.obj
 .text.HAL_TIM_Base_DeInit
                0x00000000       0x3c CMakeFiles/GRBL_STM32F103.elf.dir/Drivers/STM32F1xx_HAL_Driver/Src/stm32f1xx_hal_tim.c.obj
 .text.HAL_TIM_Base_Start
                0x00000000       0x28 CMakeFiles/GRBL_STM32F103.elf.dir/Drivers/STM32F1xx_HAL_Driver/Src/stm32f1xx_hal_tim.c.obj
 .text.HAL_TIM_Base_Stop
                0x00000000       0x30 CMakeFiles/GRBL_STM32F103.elf.dir/Drivers/STM32F1xx_HAL_Driver/Src/stm32f1xx_hal_tim.c.obj
 .text.HAL_TIM_Base_Start_IT
                0x00000000       0x20 CMakeFiles/GRBL_STM32F103.elf.dir/Drivers/STM32F1xx_HAL_Driver/Src/stm32f1xx_hal_tim.c.obj
 .text.HAL_TIM_Base_Stop_IT
                0x00000000       0x2c CMakeFiles/GRBL_STM32F103.elf.dir/Drivers/STM32F1xx_HAL_Driver/Src/stm32f1xx_hal_tim.c.obj
 .text.HAL_TIM_Base_Start_DMA
                0x00000000       0x6c CMakeFiles/GRBL_STM32F103.elf.dir/Drivers/STM32F1xx_HAL_Driver/Src/stm32f1xx_hal_tim.c.obj
 .text.HAL_TIM_Base_Stop_DMA
                0x00000000       0x3c CMakeFiles/GRBL_STM32F103.elf.dir/Drivers/STM32F1xx_HAL_Driver/Src/stm32f1xx_hal_tim.c.obj
 .text.HAL_TIM_OC_MspInit
                0x00000000        0x4 CMakeFiles/GRBL_STM32F103.elf.dir/Drivers/STM32F1xx_HAL_Driver/Src/stm32f1xx_hal_tim.c.obj
 .text.HAL_TIM_OC_Init
                0x00000000       0xa4 CMakeFiles/GRBL_STM32F103.elf.dir/Drivers/STM32F1xx_HAL_Driver/Src/stm32f1xx_hal_tim.c.obj
 .text.HAL_TIM_OC_MspDeInit
                0x00000000        0x4 CMakeFiles/GRBL_STM32F103.elf.dir/Drivers/STM32F1xx_HAL_Driver/Src/stm32f1xx_hal_tim.c.obj
 .text.HAL_TIM_OC_DeInit
                0x00000000       0x3c CMakeFiles/GRBL_STM32F103.elf.dir/Drivers/STM32F1xx_HAL_Driver/Src/stm32f1xx_hal_tim.c.obj
 .text.HAL_TIM_OC_Start
                0x00000000       0x44 CMakeFiles/GRBL_STM32F103.elf.dir/Drivers/STM32F1xx_HAL_Driver/Src/stm32f1xx_hal_tim.c.obj
 .text.HAL_TIM_OC_Stop
                0x00000000       0x60 CMakeFiles/GRBL_STM32F103.elf.dir/Drivers/STM32F1xx_HAL_Driver/Src/stm32f1xx_hal_tim.c.obj
 .text.HAL_TIM_OC_Start_IT
                0x00000000       0x8c CMakeFiles/GRBL_STM32F103.elf.dir/Drivers/STM32F1xx_HAL_Driver/Src/stm32f1xx_hal_tim.c.obj
 .text.HAL_TIM_OC_Stop_IT
                0x00000000       0xa8 CMakeFiles/GRBL_STM32F103.elf.dir/Drivers/STM32F1xx_HAL_Driver/Src/stm32f1xx_hal_tim.c.obj
 .text.HAL_TIM_OC_Start_DMA
                0x00000000      0x12c CMakeFiles/GRBL_STM32F103.elf.dir/Drivers/STM32F1xx_HAL_Driver/Src/stm32f1xx_hal_tim.c.obj
 .text.HAL_TIM_OC_Stop_DMA
                0x00000000       0xc8 CMakeFiles/GRBL_STM32F103.elf.dir/Drivers/STM32F1xx_HAL_Driver/Src/stm32f1xx_hal_tim.c.obj
 .text.HAL_TIM_PWM_MspInit
                0x00000000        0x4 CMakeFiles/GRBL_STM32F103.elf.dir/Drivers/STM32F1xx_HAL_Driver/Src/stm32f1xx_hal_tim.c.obj
 .text.HAL_TIM_PWM_Init
                0x00000000       0xa4 CMakeFiles/GRBL_STM32F103.elf.dir/Drivers/STM32F1xx_HAL_Driver/Src/stm32f1xx_hal_tim.c.obj
 .text.HAL_TIM_PWM_MspDeInit
                0x00000000        0x4 CMakeFiles/GRBL_STM32F103.elf.dir/Drivers/STM32F1xx_HAL_Driver/Src/stm32f1xx_hal_tim.c.obj
 .text.HAL_TIM_PWM_DeInit
                0x00000000       0x3c CMakeFiles/GRBL_STM32F103.elf.dir/Drivers/STM32F1xx_HAL_Driver/Src/stm32f1xx_hal_tim.c.obj
 .text.HAL_TIM_PWM_Start
                0x00000000       0x44 CMakeFiles/GRBL_STM32F103.elf.dir/Drivers/STM32F1xx_HAL_Driver/Src/stm32f1xx_hal_tim.c.obj
 .text.HAL_TIM_PWM_Stop
                0x00000000       0x6c CMakeFiles/GRBL_STM32F103.elf.dir/Drivers/STM32F1xx_HAL_Driver/Src/stm32f1xx_hal_tim.c.obj
 .text.HAL_TIM_PWM_Start_IT
                0x00000000       0x8c CMakeFiles/GRBL_STM32F103.elf.dir/Drivers/STM32F1xx_HAL_Driver/Src/stm32f1xx_hal_tim.c.obj
 .text.HAL_TIM_PWM_Stop_IT
                0x00000000       0xa8 CMakeFiles/GRBL_STM32F103.elf.dir/Drivers/STM32F1xx_HAL_Driver/Src/stm32f1xx_hal_tim.c.obj
 .text.HAL_TIM_PWM_Start_DMA
                0x00000000      0x12c CMakeFiles/GRBL_STM32F103.elf.dir/Drivers/STM32F1xx_HAL_Driver/Src/stm32f1xx_hal_tim.c.obj
 .text.HAL_TIM_PWM_Stop_DMA
                0x00000000       0xc8 CMakeFiles/GRBL_STM32F103.elf.dir/Drivers/STM32F1xx_HAL_Driver/Src/stm32f1xx_hal_tim.c.obj
 .text.HAL_TIM_IC_MspInit
                0x00000000        0x4 CMakeFiles/GRBL_STM32F103.elf.dir/Drivers/STM32F1xx_HAL_Driver/Src/stm32f1xx_hal_tim.c.obj
 .text.HAL_TIM_IC_Init
                0x00000000       0xa4 CMakeFiles/GRBL_STM32F103.elf.dir/Drivers/STM32F1xx_HAL_Driver/Src/stm32f1xx_hal_tim.c.obj
 .text.HAL_TIM_IC_MspDeInit
                0x00000000        0x4 CMakeFiles/GRBL_STM32F103.elf.dir/Drivers/STM32F1xx_HAL_Driver/Src/stm32f1xx_hal_tim.c.obj
 .text.HAL_TIM_IC_DeInit
                0x00000000       0x3c CMakeFiles/GRBL_STM32F103.elf.dir/Drivers/STM32F1xx_HAL_Driver/Src/stm32f1xx_hal_tim.c.obj
 .text.HAL_TIM_IC_Start
                0x00000000       0x30 CMakeFiles/GRBL_STM32F103.elf.dir/Drivers/STM32F1xx_HAL_Driver/Src/stm32f1xx_hal_tim.c.obj
 .text.HAL_TIM_IC_Stop
                0x00000000       0x3c CMakeFiles/GRBL_STM32F103.elf.dir/Drivers/STM32F1xx_HAL_Driver/Src/stm32f1xx_hal_tim.c.obj
 .text.HAL_TIM_IC_Start_IT
                0x00000000       0x78 CMakeFiles/GRBL_STM32F103.elf.dir/Drivers/STM32F1xx_HAL_Driver/Src/stm32f1xx_hal_tim.c.obj
 .text.HAL_TIM_IC_Stop_IT
                0x00000000       0x84 CMakeFiles/GRBL_STM32F103.elf.dir/Drivers/STM32F1xx_HAL_Driver/Src/stm32f1xx_hal_tim.c.obj
 .text.HAL_TIM_IC_Start_DMA
                0x00000000      0x114 CMakeFiles/GRBL_STM32F103.elf.dir/Drivers/STM32F1xx_HAL_Driver/Src/stm32f1xx_hal_tim.c.obj
 .text.HAL_TIM_IC_Stop_DMA
                0x00000000       0xa0 CMakeFiles/GRBL_STM32F103.elf.dir/Drivers/STM32F1xx_HAL_Driver/Src/stm32f1xx_hal_tim.c.obj
 .text.HAL_TIM_OnePulse_MspInit
                0x00000000        0x4 CMakeFiles/GRBL_STM32F103.elf.dir/Drivers/STM32F1xx_HAL_Driver/Src/stm32f1xx_hal_tim.c.obj
 .text.HAL_TIM_OnePulse_Init
                0x00000000       0xb4 CMakeFiles/GRBL_STM32F103.elf.dir/Drivers/STM32F1xx_HAL_Driver/Src/stm32f1xx_hal_tim.c.obj
 .text.HAL_TIM_OnePulse_MspDeInit
                0x00000000        0x4 CMakeFiles/GRBL_STM32F103.elf.dir/Drivers/STM32F1xx_HAL_Driver/Src/stm32f1xx_hal_tim.c.obj
 .text.HAL_TIM_OnePulse_DeInit
                0x00000000       0x3c CMakeFiles/GRBL_STM32F103.elf.dir/Drivers/STM32F1xx_HAL_Driver/Src/stm32f1xx_hal_tim.c.obj
 .text.HAL_TIM_OnePulse_Start
                0x00000000       0x3c CMakeFiles/GRBL_STM32F103.elf.dir/Drivers/STM32F1xx_HAL_Driver/Src/stm32f1xx_hal_tim.c.obj
 .text.HAL_TIM_OnePulse_Stop
                0x00000000       0x64 CMakeFiles/GRBL_STM32F103.elf.dir/Drivers/STM32F1xx_HAL_Driver/Src/stm32f1xx_hal_tim.c.obj
 .text.HAL_TIM_OnePulse_Start_IT
                0x00000000       0x4c CMakeFiles/GRBL_STM32F103.elf.dir/Drivers/STM32F1xx_HAL_Driver/Src/stm32f1xx_hal_tim.c.obj
 .text.HAL_TIM_OnePulse_Stop_IT
                0x00000000       0x74 CMakeFiles/GRBL_STM32F103.elf.dir/Drivers/STM32F1xx_HAL_Driver/Src/stm32f1xx_hal_tim.c.obj
 .text.HAL_TIM_Encoder_MspInit
                0x00000000        0x4 CMakeFiles/GRBL_STM32F103.elf.dir/Drivers/STM32F1xx_HAL_Driver/Src/stm32f1xx_hal_tim.c.obj
 .text.HAL_TIM_Encoder_MspDeInit
                0x00000000        0x4 CMakeFiles/GRBL_STM32F103.elf.dir/Drivers/STM32F1xx_HAL_Driver/Src/stm32f1xx_hal_tim.c.obj
 .text.HAL_TIM_Encoder_DeInit
                0x00000000       0x3c CMakeFiles/GRBL_STM32F103.elf.dir/Drivers/STM32F1xx_HAL_Driver/Src/stm32f1xx_hal_tim.c.obj
 .text.HAL_TIM_Encoder_Stop
                0x00000000       0x54 CMakeFiles/GRBL_STM32F103.elf.dir/Drivers/STM32F1xx_HAL_Driver/Src/stm32f1xx_hal_tim.c.obj
 .text.HAL_TIM_Encoder_Start_IT
                0x00000000       0x7c CMakeFiles/GRBL_STM32F103.elf.dir/Drivers/STM32F1xx_HAL_Driver/Src/stm32f1xx_hal_tim.c.obj
 .text.HAL_TIM_Encoder_Stop_IT
                0x00000000       0x84 CMakeFiles/GRBL_STM32F103.elf.dir/Drivers/STM32F1xx_HAL_Driver/Src/stm32f1xx_hal_tim.c.obj
 .text.HAL_TIM_Encoder_Start_DMA
                0x00000000      0x15c CMakeFiles/GRBL_STM32F103.elf.dir/Drivers/STM32F1xx_HAL_Driver/Src/stm32f1xx_hal_tim.c.obj
 .text.HAL_TIM_Encoder_Stop_DMA
                0x00000000       0xa4 CMakeFiles/GRBL_STM32F103.elf.dir/Drivers/STM32F1xx_HAL_Driver/Src/stm32f1xx_hal_tim.c.obj
 .text.HAL_TIM_OC_ConfigChannel
                0x00000000      0x194 CMakeFiles/GRBL_STM32F103.elf.dir/Drivers/STM32F1xx_HAL_Driver/Src/stm32f1xx_hal_tim.c.obj
 .text.HAL_TIM_IC_ConfigChannel
                0x00000000      0x178 CMakeFiles/GRBL_STM32F103.elf.dir/Drivers/STM32F1xx_HAL_Driver/Src/stm32f1xx_hal_tim.c.obj
 .text.HAL_TIM_PWM_ConfigChannel
                0x00000000      0x1fc CMakeFiles/GRBL_STM32F103.elf.dir/Drivers/STM32F1xx_HAL_Driver/Src/stm32f1xx_hal_tim.c.obj
 .text.HAL_TIM_OnePulse_ConfigChannel
                0x00000000      0x1d4 CMakeFiles/GRBL_STM32F103.elf.dir/Drivers/STM32F1xx_HAL_Driver/Src/stm32f1xx_hal_tim.c.obj
 .text.HAL_TIM_DMABurst_WriteStart
                0x00000000       0xf0 CMakeFiles/GRBL_STM32F103.elf.dir/Drivers/STM32F1xx_HAL_Driver/Src/stm32f1xx_hal_tim.c.obj
 .text.HAL_TIM_DMABurst_WriteStop
                0x00000000       0x90 CMakeFiles/GRBL_STM32F103.elf.dir/Drivers/STM32F1xx_HAL_Driver/Src/stm32f1xx_hal_tim.c.obj
 .text.HAL_TIM_DMABurst_ReadStart
                0x00000000       0xf0 CMakeFiles/GRBL_STM32F103.elf.dir/Drivers/STM32F1xx_HAL_Driver/Src/stm32f1xx_hal_tim.c.obj
 .text.HAL_TIM_DMABurst_ReadStop
                0x00000000       0x90 CMakeFiles/GRBL_STM32F103.elf.dir/Drivers/STM32F1xx_HAL_Driver/Src/stm32f1xx_hal_tim.c.obj
 .text.HAL_TIM_GenerateEvent
                0x00000000       0x2c CMakeFiles/GRBL_STM32F103.elf.dir/Drivers/STM32F1xx_HAL_Driver/Src/stm32f1xx_hal_tim.c.obj
 .text.HAL_TIM_ConfigOCrefClear
                0x00000000       0xe4 CMakeFiles/GRBL_STM32F103.elf.dir/Drivers/STM32F1xx_HAL_Driver/Src/stm32f1xx_hal_tim.c.obj
 .text.HAL_TIM_ConfigClockSource
                0x00000000      0x148 CMakeFiles/GRBL_STM32F103.elf.dir/Drivers/STM32F1xx_HAL_Driver/Src/stm32f1xx_hal_tim.c.obj
 .text.HAL_TIM_ConfigTI1Input
                0x00000000       0x10 CMakeFiles/GRBL_STM32F103.elf.dir/Drivers/STM32F1xx_HAL_Driver/Src/stm32f1xx_hal_tim.c.obj
 .text.HAL_TIM_SlaveConfigSynchro
                0x00000000       0xf4 CMakeFiles/GRBL_STM32F103.elf.dir/Drivers/STM32F1xx_HAL_Driver/Src/stm32f1xx_hal_tim.c.obj
 .text.HAL_TIM_SlaveConfigSynchro_IT
                0x00000000       0xf4 CMakeFiles/GRBL_STM32F103.elf.dir/Drivers/STM32F1xx_HAL_Driver/Src/stm32f1xx_hal_tim.c.obj
 .text.HAL_TIM_ReadCapturedValue
                0x00000000       0x34 CMakeFiles/GRBL_STM32F103.elf.dir/Drivers/STM32F1xx_HAL_Driver/Src/stm32f1xx_hal_tim.c.obj
 .text.HAL_TIM_PeriodElapsedCallback
                0x00000000        0x4 CMakeFiles/GRBL_STM32F103.elf.dir/Drivers/STM32F1xx_HAL_Driver/Src/stm32f1xx_hal_tim.c.obj
 .text.TIM_DMAPeriodElapsedCplt
                0x00000000       0x10 CMakeFiles/GRBL_STM32F103.elf.dir/Drivers/STM32F1xx_HAL_Driver/Src/stm32f1xx_hal_tim.c.obj
 .text.HAL_TIM_PeriodElapsedHalfCpltCallback
                0x00000000        0x4 CMakeFiles/GRBL_STM32F103.elf.dir/Drivers/STM32F1xx_HAL_Driver/Src/stm32f1xx_hal_tim.c.obj
 .text.TIM_DMAPeriodElapsedHalfCplt
                0x00000000       0x10 CMakeFiles/GRBL_STM32F103.elf.dir/Drivers/STM32F1xx_HAL_Driver/Src/stm32f1xx_hal_tim.c.obj
 .text.HAL_TIM_OC_DelayElapsedCallback
                0x00000000        0x4 CMakeFiles/GRBL_STM32F103.elf.dir/Drivers/STM32F1xx_HAL_Driver/Src/stm32f1xx_hal_tim.c.obj
 .text.HAL_TIM_IC_CaptureCallback
                0x00000000        0x4 CMakeFiles/GRBL_STM32F103.elf.dir/Drivers/STM32F1xx_HAL_Driver/Src/stm32f1xx_hal_tim.c.obj
 .text.TIM_DMACaptureCplt
                0x00000000       0x60 CMakeFiles/GRBL_STM32F103.elf.dir/Drivers/STM32F1xx_HAL_Driver/Src/stm32f1xx_hal_tim.c.obj
 .text.HAL_TIM_IC_CaptureHalfCpltCallback
                0x00000000        0x4 CMakeFiles/GRBL_STM32F103.elf.dir/Drivers/STM32F1xx_HAL_Driver/Src/stm32f1xx_hal_tim.c.obj
 .text.TIM_DMACaptureHalfCplt
                0x00000000       0x60 CMakeFiles/GRBL_STM32F103.elf.dir/Drivers/STM32F1xx_HAL_Driver/Src/stm32f1xx_hal_tim.c.obj
 .text.HAL_TIM_PWM_PulseFinishedCallback
                0x00000000        0x4 CMakeFiles/GRBL_STM32F103.elf.dir/Drivers/STM32F1xx_HAL_Driver/Src/stm32f1xx_hal_tim.c.obj
 .text.TIM_DMADelayPulseCplt
                0x00000000       0x60 CMakeFiles/GRBL_STM32F103.elf.dir/Drivers/STM32F1xx_HAL_Driver/Src/stm32f1xx_hal_tim.c.obj
 .text.HAL_TIM_PWM_PulseFinishedHalfCpltCallback
                0x00000000        0x4 CMakeFiles/GRBL_STM32F103.elf.dir/Drivers/STM32F1xx_HAL_Driver/Src/stm32f1xx_hal_tim.c.obj
 .text.TIM_DMADelayPulseHalfCplt
                0x00000000       0x60 CMakeFiles/GRBL_STM32F103.elf.dir/Drivers/STM32F1xx_HAL_Driver/Src/stm32f1xx_hal_tim.c.obj
 .text.HAL_TIM_TriggerCallback
                0x00000000        0x4 CMakeFiles/GRBL_STM32F103.elf.dir/Drivers/STM32F1xx_HAL_Driver/Src/stm32f1xx_hal_tim.c.obj
 .text.HAL_TIM_IRQHandler
                0x00000000      0x154 CMakeFiles/GRBL_STM32F103.elf.dir/Drivers/STM32F1xx_HAL_Driver/Src/stm32f1xx_hal_tim.c.obj
 .text.TIM_DMATriggerCplt
                0x00000000       0x10 CMakeFiles/GRBL_STM32F103.elf.dir/Drivers/STM32F1xx_HAL_Driver/Src/stm32f1xx_hal_tim.c.obj
 .text.HAL_TIM_TriggerHalfCpltCallback
                0x00000000        0x4 CMakeFiles/GRBL_STM32F103.elf.dir/Drivers/STM32F1xx_HAL_Driver/Src/stm32f1xx_hal_tim.c.obj
 .text.TIM_DMATriggerHalfCplt
                0x00000000       0x10 CMakeFiles/GRBL_STM32F103.elf.dir/Drivers/STM32F1xx_HAL_Driver/Src/stm32f1xx_hal_tim.c.obj
 .text.HAL_TIM_ErrorCallback
                0x00000000        0x4 CMakeFiles/GRBL_STM32F103.elf.dir/Drivers/STM32F1xx_HAL_Driver/Src/stm32f1xx_hal_tim.c.obj
 .text.TIM_DMAError
                0x00000000       0x10 CMakeFiles/GRBL_STM32F103.elf.dir/Drivers/STM32F1xx_HAL_Driver/Src/stm32f1xx_hal_tim.c.obj
 .text.HAL_TIM_Base_GetState
                0x00000000        0x8 CMakeFiles/GRBL_STM32F103.elf.dir/Drivers/STM32F1xx_HAL_Driver/Src/stm32f1xx_hal_tim.c.obj
 .text.HAL_TIM_OC_GetState
                0x00000000        0x8 CMakeFiles/GRBL_STM32F103.elf.dir/Drivers/STM32F1xx_HAL_Driver/Src/stm32f1xx_hal_tim.c.obj
 .text.HAL_TIM_PWM_GetState
                0x00000000        0x8 CMakeFiles/GRBL_STM32F103.elf.dir/Drivers/STM32F1xx_HAL_Driver/Src/stm32f1xx_hal_tim.c.obj
 .text.HAL_TIM_IC_GetState
                0x00000000        0x8 CMakeFiles/GRBL_STM32F103.elf.dir/Drivers/STM32F1xx_HAL_Driver/Src/stm32f1xx_hal_tim.c.obj
 .text.HAL_TIM_OnePulse_GetState
                0x00000000        0x8 CMakeFiles/GRBL_STM32F103.elf.dir/Drivers/STM32F1xx_HAL_Driver/Src/stm32f1xx_hal_tim.c.obj
 .text.HAL_TIM_Encoder_GetState
                0x00000000        0x8 CMakeFiles/GRBL_STM32F103.elf.dir/Drivers/STM32F1xx_HAL_Driver/Src/stm32f1xx_hal_tim.c.obj
 .text.TIM_Base_SetConfig
                0x00000000       0x7c CMakeFiles/GRBL_STM32F103.elf.dir/Drivers/STM32F1xx_HAL_Driver/Src/stm32f1xx_hal_tim.c.obj
 .text.TIM_OC2_SetConfig
                0x00000000       0x5c CMakeFiles/GRBL_STM32F103.elf.dir/Drivers/STM32F1xx_HAL_Driver/Src/stm32f1xx_hal_tim.c.obj
 .text.TIM_TI1_SetConfig
                0x00000000       0x58 CMakeFiles/GRBL_STM32F103.elf.dir/Drivers/STM32F1xx_HAL_Driver/Src/stm32f1xx_hal_tim.c.obj
 .text.TIM_ETR_SetConfig
                0x00000000       0x18 CMakeFiles/GRBL_STM32F103.elf.dir/Drivers/STM32F1xx_HAL_Driver/Src/stm32f1xx_hal_tim.c.obj
 .text.TIM_CCxChannelCmd
                0x00000000       0x20 CMakeFiles/GRBL_STM32F103.elf.dir/Drivers/STM32F1xx_HAL_Driver/Src/stm32f1xx_hal_tim.c.obj
 .text          0x00000000        0x0 CMakeFiles/GRBL_STM32F103.elf.dir/Drivers/STM32F1xx_HAL_Driver/Src/stm32f1xx_hal_tim_ex.c.obj
 .data          0x00000000        0x0 CMakeFiles/GRBL_STM32F103.elf.dir/Drivers/STM32F1xx_HAL_Driver/Src/stm32f1xx_hal_tim_ex.c.obj
 .bss           0x00000000        0x0 CMakeFiles/GRBL_STM32F103.elf.dir/Drivers/STM32F1xx_HAL_Driver/Src/stm32f1xx_hal_tim_ex.c.obj
 .text.HAL_TIMEx_HallSensor_MspInit
                0x00000000        0x4 CMakeFiles/GRBL_STM32F103.elf.dir/Drivers/STM32F1xx_HAL_Driver/Src/stm32f1xx_hal_tim_ex.c.obj
 .text.HAL_TIMEx_HallSensor_Init
                0x00000000       0xb8 CMakeFiles/GRBL_STM32F103.elf.dir/Drivers/STM32F1xx_HAL_Driver/Src/stm32f1xx_hal_tim_ex.c.obj
 .text.HAL_TIMEx_HallSensor_MspDeInit
                0x00000000        0x4 CMakeFiles/GRBL_STM32F103.elf.dir/Drivers/STM32F1xx_HAL_Driver/Src/stm32f1xx_hal_tim_ex.c.obj
 .text.HAL_TIMEx_HallSensor_DeInit
                0x00000000       0x3c CMakeFiles/GRBL_STM32F103.elf.dir/Drivers/STM32F1xx_HAL_Driver/Src/stm32f1xx_hal_tim_ex.c.obj
 .text.HAL_TIMEx_HallSensor_Start
                0x00000000       0x28 CMakeFiles/GRBL_STM32F103.elf.dir/Drivers/STM32F1xx_HAL_Driver/Src/stm32f1xx_hal_tim_ex.c.obj
 .text.HAL_TIMEx_HallSensor_Stop
                0x00000000       0x30 CMakeFiles/GRBL_STM32F103.elf.dir/Drivers/STM32F1xx_HAL_Driver/Src/stm32f1xx_hal_tim_ex.c.obj
 .text.HAL_TIMEx_HallSensor_Start_IT
                0x00000000       0x30 CMakeFiles/GRBL_STM32F103.elf.dir/Drivers/STM32F1xx_HAL_Driver/Src/stm32f1xx_hal_tim_ex.c.obj
 .text.HAL_TIMEx_HallSensor_Stop_IT
                0x00000000       0x38 CMakeFiles/GRBL_STM32F103.elf.dir/Drivers/STM32F1xx_HAL_Driver/Src/stm32f1xx_hal_tim_ex.c.obj
 .text.HAL_TIMEx_HallSensor_Start_DMA
                0x00000000       0x7c CMakeFiles/GRBL_STM32F103.elf.dir/Drivers/STM32F1xx_HAL_Driver/Src/stm32f1xx_hal_tim_ex.c.obj
 .text.HAL_TIMEx_HallSensor_Stop_DMA
                0x00000000       0x40 CMakeFiles/GRBL_STM32F103.elf.dir/Drivers/STM32F1xx_HAL_Driver/Src/stm32f1xx_hal_tim_ex.c.obj
 .text.HAL_TIMEx_OCN_Start
                0x00000000       0x38 CMakeFiles/GRBL_STM32F103.elf.dir/Drivers/STM32F1xx_HAL_Driver/Src/stm32f1xx_hal_tim_ex.c.obj
 .text.HAL_TIMEx_OCN_Stop
                0x00000000       0x58 CMakeFiles/GRBL_STM32F103.elf.dir/Drivers/STM32F1xx_HAL_Driver/Src/stm32f1xx_hal_tim_ex.c.obj
 .text.HAL_TIMEx_OCN_Start_IT
                0x00000000       0x68 CMakeFiles/GRBL_STM32F103.elf.dir/Drivers/STM32F1xx_HAL_Driver/Src/stm32f1xx_hal_tim_ex.c.obj
 .text.HAL_TIMEx_OCN_Stop_IT
                0x00000000       0x98 CMakeFiles/GRBL_STM32F103.elf.dir/Drivers/STM32F1xx_HAL_Driver/Src/stm32f1xx_hal_tim_ex.c.obj
 .text.HAL_TIMEx_OCN_Start_DMA
                0x00000000       0xf0 CMakeFiles/GRBL_STM32F103.elf.dir/Drivers/STM32F1xx_HAL_Driver/Src/stm32f1xx_hal_tim_ex.c.obj
 .text.HAL_TIMEx_OCN_Stop_DMA
                0x00000000       0xa4 CMakeFiles/GRBL_STM32F103.elf.dir/Drivers/STM32F1xx_HAL_Driver/Src/stm32f1xx_hal_tim_ex.c.obj
 .text.HAL_TIMEx_PWMN_Start
                0x00000000       0x38 CMakeFiles/GRBL_STM32F103.elf.dir/Drivers/STM32F1xx_HAL_Driver/Src/stm32f1xx_hal_tim_ex.c.obj
 .text.HAL_TIMEx_PWMN_Stop
                0x00000000       0x58 CMakeFiles/GRBL_STM32F103.elf.dir/Drivers/STM32F1xx_HAL_Driver/Src/stm32f1xx_hal_tim_ex.c.obj
 .text.HAL_TIMEx_PWMN_Start_IT
                0x00000000       0x68 CMakeFiles/GRBL_STM32F103.elf.dir/Drivers/STM32F1xx_HAL_Driver/Src/stm32f1xx_hal_tim_ex.c.obj
 .text.HAL_TIMEx_PWMN_Stop_IT
                0x00000000       0x98 CMakeFiles/GRBL_STM32F103.elf.dir/Drivers/STM32F1xx_HAL_Driver/Src/stm32f1xx_hal_tim_ex.c.obj
 .text.HAL_TIMEx_PWMN_Start_DMA
                0x00000000       0xf0 CMakeFiles/GRBL_STM32F103.elf.dir/Drivers/STM32F1xx_HAL_Driver/Src/stm32f1xx_hal_tim_ex.c.obj
 .text.HAL_TIMEx_PWMN_Stop_DMA
                0x00000000       0xa4 CMakeFiles/GRBL_STM32F103.elf.dir/Drivers/STM32F1xx_HAL_Driver/Src/stm32f1xx_hal_tim_ex.c.obj
 .text.HAL_TIMEx_OnePulseN_Start
                0x00000000       0x28 CMakeFiles/GRBL_STM32F103.elf.dir/Drivers/STM32F1xx_HAL_Driver/Src/stm32f1xx_hal_tim_ex.c.obj
 .text.HAL_TIMEx_OnePulseN_Stop
                0x00000000       0x58 CMakeFiles/GRBL_STM32F103.elf.dir/Drivers/STM32F1xx_HAL_Driver/Src/stm32f1xx_hal_tim_ex.c.obj
 .text.HAL_TIMEx_OnePulseN_Start_IT
                0x00000000       0x38 CMakeFiles/GRBL_STM32F103.elf.dir/Drivers/STM32F1xx_HAL_Driver/Src/stm32f1xx_hal_tim_ex.c.obj
 .text.HAL_TIMEx_OnePulseN_Stop_IT
                0x00000000       0x68 CMakeFiles/GRBL_STM32F103.elf.dir/Drivers/STM32F1xx_HAL_Driver/Src/stm32f1xx_hal_tim_ex.c.obj
 .text.HAL_TIMEx_ConfigCommutEvent
                0x00000000       0x60 CMakeFiles/GRBL_STM32F103.elf.dir/Drivers/STM32F1xx_HAL_Driver/Src/stm32f1xx_hal_tim_ex.c.obj
 .text.HAL_TIMEx_ConfigCommutEvent_IT
                0x00000000       0x60 CMakeFiles/GRBL_STM32F103.elf.dir/Drivers/STM32F1xx_HAL_Driver/Src/stm32f1xx_hal_tim_ex.c.obj
 .text.HAL_TIMEx_ConfigCommutEvent_DMA
                0x00000000       0x78 CMakeFiles/GRBL_STM32F103.elf.dir/Drivers/STM32F1xx_HAL_Driver/Src/stm32f1xx_hal_tim_ex.c.obj
 .text.HAL_TIMEx_ConfigBreakDeadTime
                0x00000000       0x54 CMakeFiles/GRBL_STM32F103.elf.dir/Drivers/STM32F1xx_HAL_Driver/Src/stm32f1xx_hal_tim_ex.c.obj
 .text.HAL_TIMEx_RemapConfig
                0x00000000        0x4 CMakeFiles/GRBL_STM32F103.elf.dir/Drivers/STM32F1xx_HAL_Driver/Src/stm32f1xx_hal_tim_ex.c.obj
 .text.HAL_TIMEx_CommutCallback
                0x00000000        0x4 CMakeFiles/GRBL_STM32F103.elf.dir/Drivers/STM32F1xx_HAL_Driver/Src/stm32f1xx_hal_tim_ex.c.obj
 .text.TIMEx_DMACommutationCplt
                0x00000000       0x10 CMakeFiles/GRBL_STM32F103.elf.dir/Drivers/STM32F1xx_HAL_Driver/Src/stm32f1xx_hal_tim_ex.c.obj
 .text.HAL_TIMEx_CommutHalfCpltCallback
                0x00000000        0x4 CMakeFiles/GRBL_STM32F103.elf.dir/Drivers/STM32F1xx_HAL_Driver/Src/stm32f1xx_hal_tim_ex.c.obj
 .text.TIMEx_DMACommutationHalfCplt
                0x00000000       0x10 CMakeFiles/GRBL_STM32F103.elf.dir/Drivers/STM32F1xx_HAL_Driver/Src/stm32f1xx_hal_tim_ex.c.obj
 .text.HAL_TIMEx_BreakCallback
                0x00000000        0x4 CMakeFiles/GRBL_STM32F103.elf.dir/Drivers/STM32F1xx_HAL_Driver/Src/stm32f1xx_hal_tim_ex.c.obj
 .text.HAL_TIMEx_HallSensor_GetState
                0x00000000        0x8 CMakeFiles/GRBL_STM32F103.elf.dir/Drivers/STM32F1xx_HAL_Driver/Src/stm32f1xx_hal_tim_ex.c.obj
 .text          0x00000000        0x0 CMakeFiles/GRBL_STM32F103.elf.dir/Drivers/STM32F1xx_HAL_Driver/Src/stm32f1xx_ll_dma.c.obj
 .data          0x00000000        0x0 CMakeFiles/GRBL_STM32F103.elf.dir/Drivers/STM32F1xx_HAL_Driver/Src/stm32f1xx_ll_dma.c.obj
 .bss           0x00000000        0x0 CMakeFiles/GRBL_STM32F103.elf.dir/Drivers/STM32F1xx_HAL_Driver/Src/stm32f1xx_ll_dma.c.obj
 .text.LL_DMA_DeInit
                0x00000000      0x10c CMakeFiles/GRBL_STM32F103.elf.dir/Drivers/STM32F1xx_HAL_Driver/Src/stm32f1xx_ll_dma.c.obj
 .text.LL_DMA_Init
                0x00000000       0x54 CMakeFiles/GRBL_STM32F103.elf.dir/Drivers/STM32F1xx_HAL_Driver/Src/stm32f1xx_ll_dma.c.obj
 .text.LL_DMA_StructInit
                0x00000000       0x18 CMakeFiles/GRBL_STM32F103.elf.dir/Drivers/STM32F1xx_HAL_Driver/Src/stm32f1xx_ll_dma.c.obj
 .rodata.CHANNEL_OFFSET_TAB
                0x00000000        0x7 CMakeFiles/GRBL_STM32F103.elf.dir/Drivers/STM32F1xx_HAL_Driver/Src/stm32f1xx_ll_dma.c.obj
 .debug_info    0x00000000      0x76a CMakeFiles/GRBL_STM32F103.elf.dir/Drivers/STM32F1xx_HAL_Driver/Src/stm32f1xx_ll_dma.c.obj
 .debug_abbrev  0x00000000      0x263 CMakeFiles/GRBL_STM32F103.elf.dir/Drivers/STM32F1xx_HAL_Driver/Src/stm32f1xx_ll_dma.c.obj
 .debug_loc     0x00000000      0x470 CMakeFiles/GRBL_STM32F103.elf.dir/Drivers/STM32F1xx_HAL_Driver/Src/stm32f1xx_ll_dma.c.obj
 .debug_aranges
                0x00000000       0x30 CMakeFiles/GRBL_STM32F103.elf.dir/Drivers/STM32F1xx_HAL_Driver/Src/stm32f1xx_ll_dma.c.obj
 .debug_ranges  0x00000000       0xa8 CMakeFiles/GRBL_STM32F103.elf.dir/Drivers/STM32F1xx_HAL_Driver/Src/stm32f1xx_ll_dma.c.obj
 .debug_line    0x00000000      0x582 CMakeFiles/GRBL_STM32F103.elf.dir/Drivers/STM32F1xx_HAL_Driver/Src/stm32f1xx_ll_dma.c.obj
 .debug_str     0x00000000      0x56f CMakeFiles/GRBL_STM32F103.elf.dir/Drivers/STM32F1xx_HAL_Driver/Src/stm32f1xx_ll_dma.c.obj
 .comment       0x00000000       0x7a CMakeFiles/GRBL_STM32F103.elf.dir/Drivers/STM32F1xx_HAL_Driver/Src/stm32f1xx_ll_dma.c.obj
 .debug_frame   0x00000000       0x68 CMakeFiles/GRBL_STM32F103.elf.dir/Drivers/STM32F1xx_HAL_Driver/Src/stm32f1xx_ll_dma.c.obj
 .ARM.attributes
                0x00000000       0x2d CMakeFiles/GRBL_STM32F103.elf.dir/Drivers/STM32F1xx_HAL_Driver/Src/stm32f1xx_ll_dma.c.obj
 .text          0x00000000        0x0 CMakeFiles/GRBL_STM32F103.elf.dir/Drivers/STM32F1xx_HAL_Driver/Src/stm32f1xx_ll_exti.c.obj
 .data          0x00000000        0x0 CMakeFiles/GRBL_STM32F103.elf.dir/Drivers/STM32F1xx_HAL_Driver/Src/stm32f1xx_ll_exti.c.obj
 .bss           0x00000000        0x0 CMakeFiles/GRBL_STM32F103.elf.dir/Drivers/STM32F1xx_HAL_Driver/Src/stm32f1xx_ll_exti.c.obj
 .text.LL_EXTI_DeInit
                0x00000000       0x1c CMakeFiles/GRBL_STM32F103.elf.dir/Drivers/STM32F1xx_HAL_Driver/Src/stm32f1xx_ll_exti.c.obj
 .text.LL_EXTI_Init
                0x00000000       0xb8 CMakeFiles/GRBL_STM32F103.elf.dir/Drivers/STM32F1xx_HAL_Driver/Src/stm32f1xx_ll_exti.c.obj
 .text.LL_EXTI_StructInit
                0x00000000        0xc CMakeFiles/GRBL_STM32F103.elf.dir/Drivers/STM32F1xx_HAL_Driver/Src/stm32f1xx_ll_exti.c.obj
 .debug_info    0x00000000      0x5a7 CMakeFiles/GRBL_STM32F103.elf.dir/Drivers/STM32F1xx_HAL_Driver/Src/stm32f1xx_ll_exti.c.obj
 .debug_abbrev  0x00000000      0x21d CMakeFiles/GRBL_STM32F103.elf.dir/Drivers/STM32F1xx_HAL_Driver/Src/stm32f1xx_ll_exti.c.obj
 .debug_loc     0x00000000      0x18d CMakeFiles/GRBL_STM32F103.elf.dir/Drivers/STM32F1xx_HAL_Driver/Src/stm32f1xx_ll_exti.c.obj
 .debug_aranges
                0x00000000       0x30 CMakeFiles/GRBL_STM32F103.elf.dir/Drivers/STM32F1xx_HAL_Driver/Src/stm32f1xx_ll_exti.c.obj
 .debug_ranges  0x00000000       0x98 CMakeFiles/GRBL_STM32F103.elf.dir/Drivers/STM32F1xx_HAL_Driver/Src/stm32f1xx_ll_exti.c.obj
 .debug_line    0x00000000      0x448 CMakeFiles/GRBL_STM32F103.elf.dir/Drivers/STM32F1xx_HAL_Driver/Src/stm32f1xx_ll_exti.c.obj
 .debug_str     0x00000000      0x4a7 CMakeFiles/GRBL_STM32F103.elf.dir/Drivers/STM32F1xx_HAL_Driver/Src/stm32f1xx_ll_exti.c.obj
 .comment       0x00000000       0x7a CMakeFiles/GRBL_STM32F103.elf.dir/Drivers/STM32F1xx_HAL_Driver/Src/stm32f1xx_ll_exti.c.obj
 .debug_frame   0x00000000       0x5c CMakeFiles/GRBL_STM32F103.elf.dir/Drivers/STM32F1xx_HAL_Driver/Src/stm32f1xx_ll_exti.c.obj
 .ARM.attributes
                0x00000000       0x2d CMakeFiles/GRBL_STM32F103.elf.dir/Drivers/STM32F1xx_HAL_Driver/Src/stm32f1xx_ll_exti.c.obj
 .text          0x00000000        0x0 CMakeFiles/GRBL_STM32F103.elf.dir/Drivers/STM32F1xx_HAL_Driver/Src/stm32f1xx_ll_gpio.c.obj
 .data          0x00000000        0x0 CMakeFiles/GRBL_STM32F103.elf.dir/Drivers/STM32F1xx_HAL_Driver/Src/stm32f1xx_ll_gpio.c.obj
 .bss           0x00000000        0x0 CMakeFiles/GRBL_STM32F103.elf.dir/Drivers/STM32F1xx_HAL_Driver/Src/stm32f1xx_ll_gpio.c.obj
 .text.LL_GPIO_DeInit
                0x00000000       0xb0 CMakeFiles/GRBL_STM32F103.elf.dir/Drivers/STM32F1xx_HAL_Driver/Src/stm32f1xx_ll_gpio.c.obj
 .text.LL_GPIO_StructInit
                0x00000000       0x1c CMakeFiles/GRBL_STM32F103.elf.dir/Drivers/STM32F1xx_HAL_Driver/Src/stm32f1xx_ll_gpio.c.obj
 .text          0x00000000        0x0 CMakeFiles/GRBL_STM32F103.elf.dir/Drivers/STM32F1xx_HAL_Driver/Src/stm32f1xx_ll_rcc.c.obj
 .data          0x00000000        0x0 CMakeFiles/GRBL_STM32F103.elf.dir/Drivers/STM32F1xx_HAL_Driver/Src/stm32f1xx_ll_rcc.c.obj
 .bss           0x00000000        0x0 CMakeFiles/GRBL_STM32F103.elf.dir/Drivers/STM32F1xx_HAL_Driver/Src/stm32f1xx_ll_rcc.c.obj
 .text.LL_RCC_DeInit
                0x00000000       0x5c CMakeFiles/GRBL_STM32F103.elf.dir/Drivers/STM32F1xx_HAL_Driver/Src/stm32f1xx_ll_rcc.c.obj
 .text.LL_RCC_GetUSBClockFreq
                0x00000000       0x7c CMakeFiles/GRBL_STM32F103.elf.dir/Drivers/STM32F1xx_HAL_Driver/Src/stm32f1xx_ll_rcc.c.obj
 .text.LL_RCC_GetADCClockFreq
                0x00000000       0x84 CMakeFiles/GRBL_STM32F103.elf.dir/Drivers/STM32F1xx_HAL_Driver/Src/stm32f1xx_ll_rcc.c.obj
 .text.RCC_GetSystemClockFreq
                0x00000000       0x44 CMakeFiles/GRBL_STM32F103.elf.dir/Drivers/STM32F1xx_HAL_Driver/Src/stm32f1xx_ll_rcc.c.obj
 .text.RCC_GetHCLKClockFreq
                0x00000000       0x18 CMakeFiles/GRBL_STM32F103.elf.dir/Drivers/STM32F1xx_HAL_Driver/Src/stm32f1xx_ll_rcc.c.obj
 .text.RCC_GetPCLK1ClockFreq
                0x00000000       0x18 CMakeFiles/GRBL_STM32F103.elf.dir/Drivers/STM32F1xx_HAL_Driver/Src/stm32f1xx_ll_rcc.c.obj
 .text.RCC_GetPCLK2ClockFreq
                0x00000000       0x18 CMakeFiles/GRBL_STM32F103.elf.dir/Drivers/STM32F1xx_HAL_Driver/Src/stm32f1xx_ll_rcc.c.obj
 .text.RCC_PLL_GetFreqDomain_SYS
                0x00000000       0x38 CMakeFiles/GRBL_STM32F103.elf.dir/Drivers/STM32F1xx_HAL_Driver/Src/stm32f1xx_ll_rcc.c.obj
 .text          0x00000000        0x0 CMakeFiles/GRBL_STM32F103.elf.dir/Drivers/STM32F1xx_HAL_Driver/Src/stm32f1xx_ll_tim.c.obj
 .data          0x00000000        0x0 CMakeFiles/GRBL_STM32F103.elf.dir/Drivers/STM32F1xx_HAL_Driver/Src/stm32f1xx_ll_tim.c.obj
 .bss           0x00000000        0x0 CMakeFiles/GRBL_STM32F103.elf.dir/Drivers/STM32F1xx_HAL_Driver/Src/stm32f1xx_ll_tim.c.obj
 .text.LL_TIM_DeInit
                0x00000000       0x8c CMakeFiles/GRBL_STM32F103.elf.dir/Drivers/STM32F1xx_HAL_Driver/Src/stm32f1xx_ll_tim.c.obj
 .text.LL_TIM_StructInit
                0x00000000       0x14 CMakeFiles/GRBL_STM32F103.elf.dir/Drivers/STM32F1xx_HAL_Driver/Src/stm32f1xx_ll_tim.c.obj
 .text.LL_TIM_OC_StructInit
                0x00000000       0x14 CMakeFiles/GRBL_STM32F103.elf.dir/Drivers/STM32F1xx_HAL_Driver/Src/stm32f1xx_ll_tim.c.obj
 .text.LL_TIM_IC_StructInit
                0x00000000       0x10 CMakeFiles/GRBL_STM32F103.elf.dir/Drivers/STM32F1xx_HAL_Driver/Src/stm32f1xx_ll_tim.c.obj
 .text.LL_TIM_IC_Init
                0x00000000       0xf8 CMakeFiles/GRBL_STM32F103.elf.dir/Drivers/STM32F1xx_HAL_Driver/Src/stm32f1xx_ll_tim.c.obj
 .text.LL_TIM_ENCODER_StructInit
                0x00000000       0x1c CMakeFiles/GRBL_STM32F103.elf.dir/Drivers/STM32F1xx_HAL_Driver/Src/stm32f1xx_ll_tim.c.obj
 .text.LL_TIM_ENCODER_Init
                0x00000000       0x64 CMakeFiles/GRBL_STM32F103.elf.dir/Drivers/STM32F1xx_HAL_Driver/Src/stm32f1xx_ll_tim.c.obj
 .text.LL_TIM_HALLSENSOR_StructInit
                0x00000000        0xc CMakeFiles/GRBL_STM32F103.elf.dir/Drivers/STM32F1xx_HAL_Driver/Src/stm32f1xx_ll_tim.c.obj
 .text.LL_TIM_HALLSENSOR_Init
                0x00000000       0x58 CMakeFiles/GRBL_STM32F103.elf.dir/Drivers/STM32F1xx_HAL_Driver/Src/stm32f1xx_ll_tim.c.obj
 .text.LL_TIM_BDTR_StructInit
                0x00000000       0x14 CMakeFiles/GRBL_STM32F103.elf.dir/Drivers/STM32F1xx_HAL_Driver/Src/stm32f1xx_ll_tim.c.obj
 .text          0x00000000        0x0 CMakeFiles/GRBL_STM32F103.elf.dir/Drivers/STM32F1xx_HAL_Driver/Src/stm32f1xx_ll_usart.c.obj
 .data          0x00000000        0x0 CMakeFiles/GRBL_STM32F103.elf.dir/Drivers/STM32F1xx_HAL_Driver/Src/stm32f1xx_ll_usart.c.obj
 .bss           0x00000000        0x0 CMakeFiles/GRBL_STM32F103.elf.dir/Drivers/STM32F1xx_HAL_Driver/Src/stm32f1xx_ll_usart.c.obj
 .text.LL_USART_DeInit
                0x00000000       0x6c CMakeFiles/GRBL_STM32F103.elf.dir/Drivers/STM32F1xx_HAL_Driver/Src/stm32f1xx_ll_usart.c.obj
 .text.LL_USART_StructInit
                0x00000000       0x18 CMakeFiles/GRBL_STM32F103.elf.dir/Drivers/STM32F1xx_HAL_Driver/Src/stm32f1xx_ll_usart.c.obj
 .text.LL_USART_ClockInit
                0x00000000       0x40 CMakeFiles/GRBL_STM32F103.elf.dir/Drivers/STM32F1xx_HAL_Driver/Src/stm32f1xx_ll_usart.c.obj
 .text.LL_USART_ClockStructInit
                0x00000000        0xc CMakeFiles/GRBL_STM32F103.elf.dir/Drivers/STM32F1xx_HAL_Driver/Src/stm32f1xx_ll_usart.c.obj
 .text          0x00000000        0x0 CMakeFiles/GRBL_STM32F103.elf.dir/Drivers/STM32F1xx_HAL_Driver/Src/stm32f1xx_ll_utils.c.obj
 .data          0x00000000        0x0 CMakeFiles/GRBL_STM32F103.elf.dir/Drivers/STM32F1xx_HAL_Driver/Src/stm32f1xx_ll_utils.c.obj
 .bss           0x00000000        0x0 CMakeFiles/GRBL_STM32F103.elf.dir/Drivers/STM32F1xx_HAL_Driver/Src/stm32f1xx_ll_utils.c.obj
 .text.UTILS_EnablePLLAndSwitchSystem
                0x00000000       0xf8 CMakeFiles/GRBL_STM32F103.elf.dir/Drivers/STM32F1xx_HAL_Driver/Src/stm32f1xx_ll_utils.c.obj
 .text.LL_Init1msTick
                0x00000000       0x24 CMakeFiles/GRBL_STM32F103.elf.dir/Drivers/STM32F1xx_HAL_Driver/Src/stm32f1xx_ll_utils.c.obj
 .text.LL_mDelay
                0x00000000       0x24 CMakeFiles/GRBL_STM32F103.elf.dir/Drivers/STM32F1xx_HAL_Driver/Src/stm32f1xx_ll_utils.c.obj
 .text.LL_SetSystemCoreClock
                0x00000000        0xc CMakeFiles/GRBL_STM32F103.elf.dir/Drivers/STM32F1xx_HAL_Driver/Src/stm32f1xx_ll_utils.c.obj
 .text.LL_PLL_ConfigSystemClock_HSI
                0x00000000       0x54 CMakeFiles/GRBL_STM32F103.elf.dir/Drivers/STM32F1xx_HAL_Driver/Src/stm32f1xx_ll_utils.c.obj
 .text.LL_PLL_ConfigSystemClock_HSE
                0x00000000       0x70 CMakeFiles/GRBL_STM32F103.elf.dir/Drivers/STM32F1xx_HAL_Driver/Src/stm32f1xx_ll_utils.c.obj
 .debug_info    0x00000000      0xc53 CMakeFiles/GRBL_STM32F103.elf.dir/Drivers/STM32F1xx_HAL_Driver/Src/stm32f1xx_ll_utils.c.obj
 .debug_abbrev  0x00000000      0x332 CMakeFiles/GRBL_STM32F103.elf.dir/Drivers/STM32F1xx_HAL_Driver/Src/stm32f1xx_ll_utils.c.obj
 .debug_loc     0x00000000      0x705 CMakeFiles/GRBL_STM32F103.elf.dir/Drivers/STM32F1xx_HAL_Driver/Src/stm32f1xx_ll_utils.c.obj
 .debug_aranges
                0x00000000       0x48 CMakeFiles/GRBL_STM32F103.elf.dir/Drivers/STM32F1xx_HAL_Driver/Src/stm32f1xx_ll_utils.c.obj
 .debug_ranges  0x00000000      0x290 CMakeFiles/GRBL_STM32F103.elf.dir/Drivers/STM32F1xx_HAL_Driver/Src/stm32f1xx_ll_utils.c.obj
 .debug_line    0x00000000      0x877 CMakeFiles/GRBL_STM32F103.elf.dir/Drivers/STM32F1xx_HAL_Driver/Src/stm32f1xx_ll_utils.c.obj
 .debug_str     0x00000000      0x710 CMakeFiles/GRBL_STM32F103.elf.dir/Drivers/STM32F1xx_HAL_Driver/Src/stm32f1xx_ll_utils.c.obj
 .comment       0x00000000       0x7a CMakeFiles/GRBL_STM32F103.elf.dir/Drivers/STM32F1xx_HAL_Driver/Src/stm32f1xx_ll_utils.c.obj
 .debug_frame   0x00000000       0xd4 CMakeFiles/GRBL_STM32F103.elf.dir/Drivers/STM32F1xx_HAL_Driver/Src/stm32f1xx_ll_utils.c.obj
 .ARM.attributes
                0x00000000       0x2d CMakeFiles/GRBL_STM32F103.elf.dir/Drivers/STM32F1xx_HAL_Driver/Src/stm32f1xx_ll_utils.c.obj
 .text          0x00000000        0x0 CMakeFiles/GRBL_STM32F103.elf.dir/Src/gpio.c.obj
 .data          0x00000000        0x0 CMakeFiles/GRBL_STM32F103.elf.dir/Src/gpio.c.obj
 .bss           0x00000000        0x0 CMakeFiles/GRBL_STM32F103.elf.dir/Src/gpio.c.obj
 .text          0x00000000        0x0 CMakeFiles/GRBL_STM32F103.elf.dir/Src/main.c.obj
 .data          0x00000000        0x0 CMakeFiles/GRBL_STM32F103.elf.dir/Src/main.c.obj
 .bss           0x00000000        0x0 CMakeFiles/GRBL_STM32F103.elf.dir/Src/main.c.obj
 .text          0x00000000        0x0 CMakeFiles/GRBL_STM32F103.elf.dir/Src/stm32f1xx_hal_msp.c.obj
 .data          0x00000000        0x0 CMakeFiles/GRBL_STM32F103.elf.dir/Src/stm32f1xx_hal_msp.c.obj
 .bss           0x00000000        0x0 CMakeFiles/GRBL_STM32F103.elf.dir/Src/stm32f1xx_hal_msp.c.obj
 .text          0x00000000        0x0 CMakeFiles/GRBL_STM32F103.elf.dir/Src/stm32f1xx_it.c.obj
 .data          0x00000000        0x0 CMakeFiles/GRBL_STM32F103.elf.dir/Src/stm32f1xx_it.c.obj
 .bss           0x00000000        0x0 CMakeFiles/GRBL_STM32F103.elf.dir/Src/stm32f1xx_it.c.obj
 .bss.pinmask   0x00000000        0x2 CMakeFiles/GRBL_STM32F103.elf.dir/Src/stm32f1xx_it.c.obj
 .text          0x00000000        0x0 CMakeFiles/GRBL_STM32F103.elf.dir/Src/syscalls.c.obj
 .data          0x00000000        0x0 CMakeFiles/GRBL_STM32F103.elf.dir/Src/syscalls.c.obj
 .bss           0x00000000        0x0 CMakeFiles/GRBL_STM32F103.elf.dir/Src/syscalls.c.obj
 .text.initialise_monitor_handles
                0x00000000        0x4 CMakeFiles/GRBL_STM32F103.elf.dir/Src/syscalls.c.obj
 .text._getpid  0x00000000        0x4 CMakeFiles/GRBL_STM32F103.elf.dir/Src/syscalls.c.obj
 .text._kill    0x00000000       0x14 CMakeFiles/GRBL_STM32F103.elf.dir/Src/syscalls.c.obj
 .text._exit    0x00000000        0xc CMakeFiles/GRBL_STM32F103.elf.dir/Src/syscalls.c.obj
 .text._read    0x00000000       0x1c CMakeFiles/GRBL_STM32F103.elf.dir/Src/syscalls.c.obj
 .text._write   0x00000000       0x1c CMakeFiles/GRBL_STM32F103.elf.dir/Src/syscalls.c.obj
 .text._close   0x00000000        0x8 CMakeFiles/GRBL_STM32F103.elf.dir/Src/syscalls.c.obj
 .text._fstat   0x00000000        0xc CMakeFiles/GRBL_STM32F103.elf.dir/Src/syscalls.c.obj
 .text._isatty  0x00000000        0x4 CMakeFiles/GRBL_STM32F103.elf.dir/Src/syscalls.c.obj
 .text._lseek   0x00000000        0x4 CMakeFiles/GRBL_STM32F103.elf.dir/Src/syscalls.c.obj
 .text._open    0x00000000        0xc CMakeFiles/GRBL_STM32F103.elf.dir/Src/syscalls.c.obj
 .text._wait    0x00000000       0x14 CMakeFiles/GRBL_STM32F103.elf.dir/Src/syscalls.c.obj
 .text._unlink  0x00000000       0x14 CMakeFiles/GRBL_STM32F103.elf.dir/Src/syscalls.c.obj
 .text._times   0x00000000        0x8 CMakeFiles/GRBL_STM32F103.elf.dir/Src/syscalls.c.obj
 .text._stat    0x00000000        0xc CMakeFiles/GRBL_STM32F103.elf.dir/Src/syscalls.c.obj
 .text._link    0x00000000       0x14 CMakeFiles/GRBL_STM32F103.elf.dir/Src/syscalls.c.obj
 .text._fork    0x00000000       0x14 CMakeFiles/GRBL_STM32F103.elf.dir/Src/syscalls.c.obj
 .text._execve  0x00000000       0x14 CMakeFiles/GRBL_STM32F103.elf.dir/Src/syscalls.c.obj
 .bss.__env     0x00000000        0x4 CMakeFiles/GRBL_STM32F103.elf.dir/Src/syscalls.c.obj
 .data.environ  0x00000000        0x4 CMakeFiles/GRBL_STM32F103.elf.dir/Src/syscalls.c.obj
 .text          0x00000000        0x0 CMakeFiles/GRBL_STM32F103.elf.dir/Src/system_stm32f1xx.c.obj
 .data          0x00000000        0x0 CMakeFiles/GRBL_STM32F103.elf.dir/Src/system_stm32f1xx.c.obj
 .bss           0x00000000        0x0 CMakeFiles/GRBL_STM32F103.elf.dir/Src/system_stm32f1xx.c.obj
 .text.SystemCoreClockUpdate
                0x00000000       0x5c CMakeFiles/GRBL_STM32F103.elf.dir/Src/system_stm32f1xx.c.obj
 .text          0x00000000        0x0 CMakeFiles/GRBL_STM32F103.elf.dir/Src/tim.c.obj
 .data          0x00000000        0x0 CMakeFiles/GRBL_STM32F103.elf.dir/Src/tim.c.obj
 .bss           0x00000000        0x0 CMakeFiles/GRBL_STM32F103.elf.dir/Src/tim.c.obj
 .text.HAL_TIM_Encoder_MspDeInit
                0x00000000       0x28 CMakeFiles/GRBL_STM32F103.elf.dir/Src/tim.c.obj
 .text          0x00000000        0x0 CMakeFiles/GRBL_STM32F103.elf.dir/Src/usart.c.obj
 .data          0x00000000        0x0 CMakeFiles/GRBL_STM32F103.elf.dir/Src/usart.c.obj
 .bss           0x00000000        0x0 CMakeFiles/GRBL_STM32F103.elf.dir/Src/usart.c.obj
 .text          0x00000000       0x14 CMakeFiles/GRBL_STM32F103.elf.dir/startup/startup_stm32f103xb.s.obj
 .data          0x00000000        0x0 CMakeFiles/GRBL_STM32F103.elf.dir/startup/startup_stm32f103xb.s.obj
 .bss           0x00000000        0x0 CMakeFiles/GRBL_STM32F103.elf.dir/startup/startup_stm32f103xb.s.obj
 .text          0x00000000      0x254 d:/progra~2/stm32c~1/gnu-to~1/bin/../lib/gcc/arm-none-eabi/9.2.1/thumb/v7-m/nofp\libgcc.a(_arm_muldf3.o)
 .data          0x00000000        0x0 d:/progra~2/stm32c~1/gnu-to~1/bin/../lib/gcc/arm-none-eabi/9.2.1/thumb/v7-m/nofp\libgcc.a(_arm_muldf3.o)
 .bss           0x00000000        0x0 d:/progra~2/stm32c~1/gnu-to~1/bin/../lib/gcc/arm-none-eabi/9.2.1/thumb/v7-m/nofp\libgcc.a(_arm_muldf3.o)
 .debug_frame   0x00000000       0x30 d:/progra~2/stm32c~1/gnu-to~1/bin/../lib/gcc/arm-none-eabi/9.2.1/thumb/v7-m/nofp\libgcc.a(_arm_muldf3.o)
 .ARM.attributes
                0x00000000       0x1d d:/progra~2/stm32c~1/gnu-to~1/bin/../lib/gcc/arm-none-eabi/9.2.1/thumb/v7-m/nofp\libgcc.a(_arm_muldf3.o)
 .text          0x00000000      0x168 d:/progra~2/stm32c~1/gnu-to~1/bin/../lib/gcc/arm-none-eabi/9.2.1/thumb/v7-m/nofp\libgcc.a(_arm_mulsf3.o)
 .data          0x00000000        0x0 d:/progra~2/stm32c~1/gnu-to~1/bin/../lib/gcc/arm-none-eabi/9.2.1/thumb/v7-m/nofp\libgcc.a(_arm_mulsf3.o)
 .bss           0x00000000        0x0 d:/progra~2/stm32c~1/gnu-to~1/bin/../lib/gcc/arm-none-eabi/9.2.1/thumb/v7-m/nofp\libgcc.a(_arm_mulsf3.o)
 .debug_frame   0x00000000       0x24 d:/progra~2/stm32c~1/gnu-to~1/bin/../lib/gcc/arm-none-eabi/9.2.1/thumb/v7-m/nofp\libgcc.a(_arm_mulsf3.o)
 .ARM.attributes
                0x00000000       0x1d d:/progra~2/stm32c~1/gnu-to~1/bin/../lib/gcc/arm-none-eabi/9.2.1/thumb/v7-m/nofp\libgcc.a(_arm_mulsf3.o)
 .data          0x00000000        0x0 d:/progra~2/stm32c~1/gnu-to~1/bin/../lib/gcc/arm-none-eabi/9.2.1/thumb/v7-m/nofp\libgcc.a(_arm_addsubdf3.o)
 .bss           0x00000000        0x0 d:/progra~2/stm32c~1/gnu-to~1/bin/../lib/gcc/arm-none-eabi/9.2.1/thumb/v7-m/nofp\libgcc.a(_arm_addsubdf3.o)
 .data          0x00000000        0x0 d:/progra~2/stm32c~1/gnu-to~1/bin/../lib/gcc/arm-none-eabi/9.2.1/thumb/v7-m/nofp\libgcc.a(_arm_muldivdf3.o)
 .bss           0x00000000        0x0 d:/progra~2/stm32c~1/gnu-to~1/bin/../lib/gcc/arm-none-eabi/9.2.1/thumb/v7-m/nofp\libgcc.a(_arm_muldivdf3.o)
 .data          0x00000000        0x0 d:/progra~2/stm32c~1/gnu-to~1/bin/../lib/gcc/arm-none-eabi/9.2.1/thumb/v7-m/nofp\libgcc.a(_arm_cmpdf2.o)
 .bss           0x00000000        0x0 d:/progra~2/stm32c~1/gnu-to~1/bin/../lib/gcc/arm-none-eabi/9.2.1/thumb/v7-m/nofp\libgcc.a(_arm_cmpdf2.o)
 .data          0x00000000        0x0 d:/progra~2/stm32c~1/gnu-to~1/bin/../lib/gcc/arm-none-eabi/9.2.1/thumb/v7-m/nofp\libgcc.a(_arm_fixunsdfsi.o)
 .bss           0x00000000        0x0 d:/progra~2/stm32c~1/gnu-to~1/bin/../lib/gcc/arm-none-eabi/9.2.1/thumb/v7-m/nofp\libgcc.a(_arm_fixunsdfsi.o)
 .data          0x00000000        0x0 d:/progra~2/stm32c~1/gnu-to~1/bin/../lib/gcc/arm-none-eabi/9.2.1/thumb/v7-m/nofp\libgcc.a(_arm_truncdfsf2.o)
 .bss           0x00000000        0x0 d:/progra~2/stm32c~1/gnu-to~1/bin/../lib/gcc/arm-none-eabi/9.2.1/thumb/v7-m/nofp\libgcc.a(_arm_truncdfsf2.o)
 .data          0x00000000        0x0 d:/progra~2/stm32c~1/gnu-to~1/bin/../lib/gcc/arm-none-eabi/9.2.1/thumb/v7-m/nofp\libgcc.a(_arm_addsubsf3.o)
 .bss           0x00000000        0x0 d:/progra~2/stm32c~1/gnu-to~1/bin/../lib/gcc/arm-none-eabi/9.2.1/thumb/v7-m/nofp\libgcc.a(_arm_addsubsf3.o)
 .data          0x00000000        0x0 d:/progra~2/stm32c~1/gnu-to~1/bin/../lib/gcc/arm-none-eabi/9.2.1/thumb/v7-m/nofp\libgcc.a(_arm_muldivsf3.o)
 .bss           0x00000000        0x0 d:/progra~2/stm32c~1/gnu-to~1/bin/../lib/gcc/arm-none-eabi/9.2.1/thumb/v7-m/nofp\libgcc.a(_arm_muldivsf3.o)
 .data          0x00000000        0x0 d:/progra~2/stm32c~1/gnu-to~1/bin/../lib/gcc/arm-none-eabi/9.2.1/thumb/v7-m/nofp\libgcc.a(_arm_cmpsf2.o)
 .bss           0x00000000        0x0 d:/progra~2/stm32c~1/gnu-to~1/bin/../lib/gcc/arm-none-eabi/9.2.1/thumb/v7-m/nofp\libgcc.a(_arm_cmpsf2.o)
 .data          0x00000000        0x0 d:/progra~2/stm32c~1/gnu-to~1/bin/../lib/gcc/arm-none-eabi/9.2.1/thumb/v7-m/nofp\libgcc.a(_arm_fixsfsi.o)
 .bss           0x00000000        0x0 d:/progra~2/stm32c~1/gnu-to~1/bin/../lib/gcc/arm-none-eabi/9.2.1/thumb/v7-m/nofp\libgcc.a(_arm_fixsfsi.o)
 .data          0x00000000        0x0 d:/progra~2/stm32c~1/gnu-to~1/bin/../lib/gcc/arm-none-eabi/9.2.1/thumb/v7-m/nofp\libgcc.a(_arm_fixunssfsi.o)
 .bss           0x00000000        0x0 d:/progra~2/stm32c~1/gnu-to~1/bin/../lib/gcc/arm-none-eabi/9.2.1/thumb/v7-m/nofp\libgcc.a(_arm_fixunssfsi.o)
 .text          0x00000000        0x0 d:/progra~2/stm32c~1/gnu-to~1/bin/../lib/gcc/arm-none-eabi/9.2.1/../../../../arm-none-eabi/lib/thumb/v7-m/nofp\libg_nano.a(lib_a-errno.o)
 .data          0x00000000        0x0 d:/progra~2/stm32c~1/gnu-to~1/bin/../lib/gcc/arm-none-eabi/9.2.1/../../../../arm-none-eabi/lib/thumb/v7-m/nofp\libg_nano.a(lib_a-errno.o)
 .bss           0x00000000        0x0 d:/progra~2/stm32c~1/gnu-to~1/bin/../lib/gcc/arm-none-eabi/9.2.1/../../../../arm-none-eabi/lib/thumb/v7-m/nofp\libg_nano.a(lib_a-errno.o)
 .text          0x00000000        0x0 d:/progra~2/stm32c~1/gnu-to~1/bin/../lib/gcc/arm-none-eabi/9.2.1/../../../../arm-none-eabi/lib/thumb/v7-m/nofp\libg_nano.a(lib_a-exit.o)
 .data          0x00000000        0x0 d:/progra~2/stm32c~1/gnu-to~1/bin/../lib/gcc/arm-none-eabi/9.2.1/../../../../arm-none-eabi/lib/thumb/v7-m/nofp\libg_nano.a(lib_a-exit.o)
 .bss           0x00000000        0x0 d:/progra~2/stm32c~1/gnu-to~1/bin/../lib/gcc/arm-none-eabi/9.2.1/../../../../arm-none-eabi/lib/thumb/v7-m/nofp\libg_nano.a(lib_a-exit.o)
 .text.exit     0x00000000       0x28 d:/progra~2/stm32c~1/gnu-to~1/bin/../lib/gcc/arm-none-eabi/9.2.1/../../../../arm-none-eabi/lib/thumb/v7-m/nofp\libg_nano.a(lib_a-exit.o)
 .debug_frame   0x00000000       0x28 d:/progra~2/stm32c~1/gnu-to~1/bin/../lib/gcc/arm-none-eabi/9.2.1/../../../../arm-none-eabi/lib/thumb/v7-m/nofp\libg_nano.a(lib_a-exit.o)
 .ARM.attributes
                0x00000000       0x2d d:/progra~2/stm32c~1/gnu-to~1/bin/../lib/gcc/arm-none-eabi/9.2.1/../../../../arm-none-eabi/lib/thumb/v7-m/nofp\libg_nano.a(lib_a-exit.o)
 .text          0x00000000        0x0 d:/progra~2/stm32c~1/gnu-to~1/bin/../lib/gcc/arm-none-eabi/9.2.1/../../../../arm-none-eabi/lib/thumb/v7-m/nofp\libg_nano.a(lib_a-impure.o)
 .data          0x00000000        0x0 d:/progra~2/stm32c~1/gnu-to~1/bin/../lib/gcc/arm-none-eabi/9.2.1/../../../../arm-none-eabi/lib/thumb/v7-m/nofp\libg_nano.a(lib_a-impure.o)
 .bss           0x00000000        0x0 d:/progra~2/stm32c~1/gnu-to~1/bin/../lib/gcc/arm-none-eabi/9.2.1/../../../../arm-none-eabi/lib/thumb/v7-m/nofp\libg_nano.a(lib_a-impure.o)
 .rodata._global_impure_ptr
                0x00000000        0x4 d:/progra~2/stm32c~1/gnu-to~1/bin/../lib/gcc/arm-none-eabi/9.2.1/../../../../arm-none-eabi/lib/thumb/v7-m/nofp\libg_nano.a(lib_a-impure.o)
 .text          0x00000000        0x0 d:/progra~2/stm32c~1/gnu-to~1/bin/../lib/gcc/arm-none-eabi/9.2.1/../../../../arm-none-eabi/lib/thumb/v7-m/nofp\libg_nano.a(lib_a-init.o)
 .data          0x00000000        0x0 d:/progra~2/stm32c~1/gnu-to~1/bin/../lib/gcc/arm-none-eabi/9.2.1/../../../../arm-none-eabi/lib/thumb/v7-m/nofp\libg_nano.a(lib_a-init.o)
 .bss           0x00000000        0x0 d:/progra~2/stm32c~1/gnu-to~1/bin/../lib/gcc/arm-none-eabi/9.2.1/../../../../arm-none-eabi/lib/thumb/v7-m/nofp\libg_nano.a(lib_a-init.o)
 .text          0x00000000        0x0 d:/progra~2/stm32c~1/gnu-to~1/bin/../lib/gcc/arm-none-eabi/9.2.1/../../../../arm-none-eabi/lib/thumb/v7-m/nofp\libg_nano.a(lib_a-memcmp.o)
 .data          0x00000000        0x0 d:/progra~2/stm32c~1/gnu-to~1/bin/../lib/gcc/arm-none-eabi/9.2.1/../../../../arm-none-eabi/lib/thumb/v7-m/nofp\libg_nano.a(lib_a-memcmp.o)
 .bss           0x00000000        0x0 d:/progra~2/stm32c~1/gnu-to~1/bin/../lib/gcc/arm-none-eabi/9.2.1/../../../../arm-none-eabi/lib/thumb/v7-m/nofp\libg_nano.a(lib_a-memcmp.o)
 .text          0x00000000        0x0 d:/progra~2/stm32c~1/gnu-to~1/bin/../lib/gcc/arm-none-eabi/9.2.1/../../../../arm-none-eabi/lib/thumb/v7-m/nofp\libg_nano.a(lib_a-memset.o)
 .data          0x00000000        0x0 d:/progra~2/stm32c~1/gnu-to~1/bin/../lib/gcc/arm-none-eabi/9.2.1/../../../../arm-none-eabi/lib/thumb/v7-m/nofp\libg_nano.a(lib_a-memset.o)
 .bss           0x00000000        0x0 d:/progra~2/stm32c~1/gnu-to~1/bin/../lib/gcc/arm-none-eabi/9.2.1/../../../../arm-none-eabi/lib/thumb/v7-m/nofp\libg_nano.a(lib_a-memset.o)
 .text          0x00000000        0x0 d:/progra~2/stm32c~1/gnu-to~1/bin/../lib/gcc/arm-none-eabi/9.2.1/../../../../arm-none-eabi/lib/thumb/v7-m/nofp\libg_nano.a(lib_a-sprintf.o)
 .data          0x00000000        0x0 d:/progra~2/stm32c~1/gnu-to~1/bin/../lib/gcc/arm-none-eabi/9.2.1/../../../../arm-none-eabi/lib/thumb/v7-m/nofp\libg_nano.a(lib_a-sprintf.o)
 .bss           0x00000000        0x0 d:/progra~2/stm32c~1/gnu-to~1/bin/../lib/gcc/arm-none-eabi/9.2.1/../../../../arm-none-eabi/lib/thumb/v7-m/nofp\libg_nano.a(lib_a-sprintf.o)
 .text._sprintf_r
                0x00000000       0x38 d:/progra~2/stm32c~1/gnu-to~1/bin/../lib/gcc/arm-none-eabi/9.2.1/../../../../arm-none-eabi/lib/thumb/v7-m/nofp\libg_nano.a(lib_a-sprintf.o)
 .text          0x00000000        0x0 d:/progra~2/stm32c~1/gnu-to~1/bin/../lib/gcc/arm-none-eabi/9.2.1/../../../../arm-none-eabi/lib/thumb/v7-m/nofp\libg_nano.a(lib_a-nano-svfprintf.o)
 .data          0x00000000        0x0 d:/progra~2/stm32c~1/gnu-to~1/bin/../lib/gcc/arm-none-eabi/9.2.1/../../../../arm-none-eabi/lib/thumb/v7-m/nofp\libg_nano.a(lib_a-nano-svfprintf.o)
 .bss           0x00000000        0x0 d:/progra~2/stm32c~1/gnu-to~1/bin/../lib/gcc/arm-none-eabi/9.2.1/../../../../arm-none-eabi/lib/thumb/v7-m/nofp\libg_nano.a(lib_a-nano-svfprintf.o)
 .text.__ssprint_r
                0x00000000       0xf6 d:/progra~2/stm32c~1/gnu-to~1/bin/../lib/gcc/arm-none-eabi/9.2.1/../../../../arm-none-eabi/lib/thumb/v7-m/nofp\libg_nano.a(lib_a-nano-svfprintf.o)
 .text          0x00000000        0x0 d:/progra~2/stm32c~1/gnu-to~1/bin/../lib/gcc/arm-none-eabi/9.2.1/../../../../arm-none-eabi/lib/thumb/v7-m/nofp\libg_nano.a(lib_a-nano-vfprintf_i.o)
 .data          0x00000000        0x0 d:/progra~2/stm32c~1/gnu-to~1/bin/../lib/gcc/arm-none-eabi/9.2.1/../../../../arm-none-eabi/lib/thumb/v7-m/nofp\libg_nano.a(lib_a-nano-vfprintf_i.o)
 .bss           0x00000000        0x0 d:/progra~2/stm32c~1/gnu-to~1/bin/../lib/gcc/arm-none-eabi/9.2.1/../../../../arm-none-eabi/lib/thumb/v7-m/nofp\libg_nano.a(lib_a-nano-vfprintf_i.o)
 .text          0x00000000        0x0 d:/progra~2/stm32c~1/gnu-to~1/bin/../lib/gcc/arm-none-eabi/9.2.1/../../../../arm-none-eabi/lib/thumb/v7-m/nofp\libg_nano.a(lib_a-memchr-stub.o)
 .data          0x00000000        0x0 d:/progra~2/stm32c~1/gnu-to~1/bin/../lib/gcc/arm-none-eabi/9.2.1/../../../../arm-none-eabi/lib/thumb/v7-m/nofp\libg_nano.a(lib_a-memchr-stub.o)
 .bss           0x00000000        0x0 d:/progra~2/stm32c~1/gnu-to~1/bin/../lib/gcc/arm-none-eabi/9.2.1/../../../../arm-none-eabi/lib/thumb/v7-m/nofp\libg_nano.a(lib_a-memchr-stub.o)
 .text          0x00000000        0x0 d:/progra~2/stm32c~1/gnu-to~1/bin/../lib/gcc/arm-none-eabi/9.2.1/../../../../arm-none-eabi/lib/thumb/v7-m/nofp\libg_nano.a(lib_a-memcpy-stub.o)
 .data          0x00000000        0x0 d:/progra~2/stm32c~1/gnu-to~1/bin/../lib/gcc/arm-none-eabi/9.2.1/../../../../arm-none-eabi/lib/thumb/v7-m/nofp\libg_nano.a(lib_a-memcpy-stub.o)
 .bss           0x00000000        0x0 d:/progra~2/stm32c~1/gnu-to~1/bin/../lib/gcc/arm-none-eabi/9.2.1/../../../../arm-none-eabi/lib/thumb/v7-m/nofp\libg_nano.a(lib_a-memcpy-stub.o)
 .text          0x00000000        0x0 d:/progra~2/stm32c~1/gnu-to~1/bin/../lib/gcc/arm-none-eabi/9.2.1/../../../../arm-none-eabi/lib/thumb/v7-m/nofp\libg_nano.a(lib_a-memmove.o)
 .data          0x00000000        0x0 d:/progra~2/stm32c~1/gnu-to~1/bin/../lib/gcc/arm-none-eabi/9.2.1/../../../../arm-none-eabi/lib/thumb/v7-m/nofp\libg_nano.a(lib_a-memmove.o)
 .bss           0x00000000        0x0 d:/progra~2/stm32c~1/gnu-to~1/bin/../lib/gcc/arm-none-eabi/9.2.1/../../../../arm-none-eabi/lib/thumb/v7-m/nofp\libg_nano.a(lib_a-memmove.o)
 .text          0x00000000        0x0 d:/progra~2/stm32c~1/gnu-to~1/bin/../lib/gcc/arm-none-eabi/9.2.1/../../../../arm-none-eabi/lib/thumb/v7-m/nofp\libg_nano.a(lib_a-nano-freer.o)
 .data          0x00000000        0x0 d:/progra~2/stm32c~1/gnu-to~1/bin/../lib/gcc/arm-none-eabi/9.2.1/../../../../arm-none-eabi/lib/thumb/v7-m/nofp\libg_nano.a(lib_a-nano-freer.o)
 .bss           0x00000000        0x0 d:/progra~2/stm32c~1/gnu-to~1/bin/../lib/gcc/arm-none-eabi/9.2.1/../../../../arm-none-eabi/lib/thumb/v7-m/nofp\libg_nano.a(lib_a-nano-freer.o)
 .text          0x00000000        0x0 d:/progra~2/stm32c~1/gnu-to~1/bin/../lib/gcc/arm-none-eabi/9.2.1/../../../../arm-none-eabi/lib/thumb/v7-m/nofp\libg_nano.a(lib_a-nano-mallocr.o)
 .data          0x00000000        0x0 d:/progra~2/stm32c~1/gnu-to~1/bin/../lib/gcc/arm-none-eabi/9.2.1/../../../../arm-none-eabi/lib/thumb/v7-m/nofp\libg_nano.a(lib_a-nano-mallocr.o)
 .bss           0x00000000        0x0 d:/progra~2/stm32c~1/gnu-to~1/bin/../lib/gcc/arm-none-eabi/9.2.1/../../../../arm-none-eabi/lib/thumb/v7-m/nofp\libg_nano.a(lib_a-nano-mallocr.o)
 .text          0x00000000        0x0 d:/progra~2/stm32c~1/gnu-to~1/bin/../lib/gcc/arm-none-eabi/9.2.1/../../../../arm-none-eabi/lib/thumb/v7-m/nofp\libg_nano.a(lib_a-nano-reallocr.o)
 .data          0x00000000        0x0 d:/progra~2/stm32c~1/gnu-to~1/bin/../lib/gcc/arm-none-eabi/9.2.1/../../../../arm-none-eabi/lib/thumb/v7-m/nofp\libg_nano.a(lib_a-nano-reallocr.o)
 .bss           0x00000000        0x0 d:/progra~2/stm32c~1/gnu-to~1/bin/../lib/gcc/arm-none-eabi/9.2.1/../../../../arm-none-eabi/lib/thumb/v7-m/nofp\libg_nano.a(lib_a-nano-reallocr.o)
 .text          0x00000000        0x0 d:/progra~2/stm32c~1/gnu-to~1/bin/../lib/gcc/arm-none-eabi/9.2.1/../../../../arm-none-eabi/lib/thumb/v7-m/nofp\libg_nano.a(lib_a-sbrkr.o)
 .data          0x00000000        0x0 d:/progra~2/stm32c~1/gnu-to~1/bin/../lib/gcc/arm-none-eabi/9.2.1/../../../../arm-none-eabi/lib/thumb/v7-m/nofp\libg_nano.a(lib_a-sbrkr.o)
 .bss           0x00000000        0x0 d:/progra~2/stm32c~1/gnu-to~1/bin/../lib/gcc/arm-none-eabi/9.2.1/../../../../arm-none-eabi/lib/thumb/v7-m/nofp\libg_nano.a(lib_a-sbrkr.o)
 .text          0x00000000        0x0 d:/progra~2/stm32c~1/gnu-to~1/bin/../lib/gcc/arm-none-eabi/9.2.1/../../../../arm-none-eabi/lib/thumb/v7-m/nofp\libg_nano.a(lib_a-mlock.o)
 .data          0x00000000        0x0 d:/progra~2/stm32c~1/gnu-to~1/bin/../lib/gcc/arm-none-eabi/9.2.1/../../../../arm-none-eabi/lib/thumb/v7-m/nofp\libg_nano.a(lib_a-mlock.o)
 .bss           0x00000000        0x0 d:/progra~2/stm32c~1/gnu-to~1/bin/../lib/gcc/arm-none-eabi/9.2.1/../../../../arm-none-eabi/lib/thumb/v7-m/nofp\libg_nano.a(lib_a-mlock.o)
 .text          0x00000000        0x0 d:/progra~2/stm32c~1/gnu-to~1/bin/../lib/gcc/arm-none-eabi/9.2.1/../../../../arm-none-eabi/lib/thumb/v7-m/nofp\libg_nano.a(lib_a-nano-msizer.o)
 .data          0x00000000        0x0 d:/progra~2/stm32c~1/gnu-to~1/bin/../lib/gcc/arm-none-eabi/9.2.1/../../../../arm-none-eabi/lib/thumb/v7-m/nofp\libg_nano.a(lib_a-nano-msizer.o)
 .bss           0x00000000        0x0 d:/progra~2/stm32c~1/gnu-to~1/bin/../lib/gcc/arm-none-eabi/9.2.1/../../../../arm-none-eabi/lib/thumb/v7-m/nofp\libg_nano.a(lib_a-nano-msizer.o)
 .text          0x00000000        0x0 d:/progra~2/stm32c~1/gnu-to~1/bin/../lib/gcc/arm-none-eabi/9.2.1/../../../../arm-none-eabi/lib/thumb/v7-m/nofp\libg_nano.a(lib_a-reent.o)
 .data          0x00000000        0x0 d:/progra~2/stm32c~1/gnu-to~1/bin/../lib/gcc/arm-none-eabi/9.2.1/../../../../arm-none-eabi/lib/thumb/v7-m/nofp\libg_nano.a(lib_a-reent.o)
 .bss           0x00000000        0x0 d:/progra~2/stm32c~1/gnu-to~1/bin/../lib/gcc/arm-none-eabi/9.2.1/../../../../arm-none-eabi/lib/thumb/v7-m/nofp\libg_nano.a(lib_a-reent.o)
 .text.cleanup_glue
                0x00000000       0x1a d:/progra~2/stm32c~1/gnu-to~1/bin/../lib/gcc/arm-none-eabi/9.2.1/../../../../arm-none-eabi/lib/thumb/v7-m/nofp\libg_nano.a(lib_a-reent.o)
 .text._reclaim_reent
                0x00000000       0xb8 d:/progra~2/stm32c~1/gnu-to~1/bin/../lib/gcc/arm-none-eabi/9.2.1/../../../../arm-none-eabi/lib/thumb/v7-m/nofp\libg_nano.a(lib_a-reent.o)
 .text          0x00000000        0x0 d:/progra~2/stm32c~1/gnu-to~1/bin/../lib/gcc/arm-none-eabi/9.2.1/../../../../arm-none-eabi/lib/thumb/v7-m/nofp\libg_nano.a(lib_a-lock.o)
 .data          0x00000000        0x0 d:/progra~2/stm32c~1/gnu-to~1/bin/../lib/gcc/arm-none-eabi/9.2.1/../../../../arm-none-eabi/lib/thumb/v7-m/nofp\libg_nano.a(lib_a-lock.o)
 .bss           0x00000000        0x0 d:/progra~2/stm32c~1/gnu-to~1/bin/../lib/gcc/arm-none-eabi/9.2.1/../../../../arm-none-eabi/lib/thumb/v7-m/nofp\libg_nano.a(lib_a-lock.o)
 .text.__retarget_lock_init
                0x00000000        0x2 d:/progra~2/stm32c~1/gnu-to~1/bin/../lib/gcc/arm-none-eabi/9.2.1/../../../../arm-none-eabi/lib/thumb/v7-m/nofp\libg_nano.a(lib_a-lock.o)
 .text.__retarget_lock_init_recursive
                0x00000000        0x2 d:/progra~2/stm32c~1/gnu-to~1/bin/../lib/gcc/arm-none-eabi/9.2.1/../../../../arm-none-eabi/lib/thumb/v7-m/nofp\libg_nano.a(lib_a-lock.o)
 .text.__retarget_lock_close
                0x00000000        0x2 d:/progra~2/stm32c~1/gnu-to~1/bin/../lib/gcc/arm-none-eabi/9.2.1/../../../../arm-none-eabi/lib/thumb/v7-m/nofp\libg_nano.a(lib_a-lock.o)
 .text.__retarget_lock_close_recursive
                0x00000000        0x2 d:/progra~2/stm32c~1/gnu-to~1/bin/../lib/gcc/arm-none-eabi/9.2.1/../../../../arm-none-eabi/lib/thumb/v7-m/nofp\libg_nano.a(lib_a-lock.o)
 .text.__retarget_lock_acquire
                0x00000000        0x2 d:/progra~2/stm32c~1/gnu-to~1/bin/../lib/gcc/arm-none-eabi/9.2.1/../../../../arm-none-eabi/lib/thumb/v7-m/nofp\libg_nano.a(lib_a-lock.o)
 .text.__retarget_lock_try_acquire
                0x00000000        0x4 d:/progra~2/stm32c~1/gnu-to~1/bin/../lib/gcc/arm-none-eabi/9.2.1/../../../../arm-none-eabi/lib/thumb/v7-m/nofp\libg_nano.a(lib_a-lock.o)
 .text.__retarget_lock_try_acquire_recursive
                0x00000000        0x4 d:/progra~2/stm32c~1/gnu-to~1/bin/../lib/gcc/arm-none-eabi/9.2.1/../../../../arm-none-eabi/lib/thumb/v7-m/nofp\libg_nano.a(lib_a-lock.o)
 .text.__retarget_lock_release
                0x00000000        0x2 d:/progra~2/stm32c~1/gnu-to~1/bin/../lib/gcc/arm-none-eabi/9.2.1/../../../../arm-none-eabi/lib/thumb/v7-m/nofp\libg_nano.a(lib_a-lock.o)
 .text          0x00000000        0x0 d:/progra~2/stm32c~1/gnu-to~1/bin/../lib/gcc/arm-none-eabi/9.2.1/thumb/v7-m/nofp/crtend.o
 .data          0x00000000        0x0 d:/progra~2/stm32c~1/gnu-to~1/bin/../lib/gcc/arm-none-eabi/9.2.1/thumb/v7-m/nofp/crtend.o
 .bss           0x00000000        0x0 d:/progra~2/stm32c~1/gnu-to~1/bin/../lib/gcc/arm-none-eabi/9.2.1/thumb/v7-m/nofp/crtend.o
 .eh_frame      0x00000000        0x4 d:/progra~2/stm32c~1/gnu-to~1/bin/../lib/gcc/arm-none-eabi/9.2.1/thumb/v7-m/nofp/crtend.o
 .ARM.attributes
                0x00000000       0x2d d:/progra~2/stm32c~1/gnu-to~1/bin/../lib/gcc/arm-none-eabi/9.2.1/thumb/v7-m/nofp/crtend.o
 .text          0x00000000        0x0 d:/progra~2/stm32c~1/gnu-to~1/bin/../lib/gcc/arm-none-eabi/9.2.1/thumb/v7-m/nofp/crtn.o
 .data          0x00000000        0x0 d:/progra~2/stm32c~1/gnu-to~1/bin/../lib/gcc/arm-none-eabi/9.2.1/thumb/v7-m/nofp/crtn.o
 .bss           0x00000000        0x0 d:/progra~2/stm32c~1/gnu-to~1/bin/../lib/gcc/arm-none-eabi/9.2.1/thumb/v7-m/nofp/crtn.o
 .text          0x00000000        0x0 d:/progra~2/stm32c~1/gnu-to~1/bin/../lib/gcc/arm-none-eabi/9.2.1/../../../../arm-none-eabi/lib/thumb/v7-m/nofp\libm.a(lib_a-s_ceil.o)
 .data          0x00000000        0x0 d:/progra~2/stm32c~1/gnu-to~1/bin/../lib/gcc/arm-none-eabi/9.2.1/../../../../arm-none-eabi/lib/thumb/v7-m/nofp\libm.a(lib_a-s_ceil.o)
 .bss           0x00000000        0x0 d:/progra~2/stm32c~1/gnu-to~1/bin/../lib/gcc/arm-none-eabi/9.2.1/../../../../arm-none-eabi/lib/thumb/v7-m/nofp\libm.a(lib_a-s_ceil.o)
 .debug_frame   0x00000000       0x30 d:/progra~2/stm32c~1/gnu-to~1/bin/../lib/gcc/arm-none-eabi/9.2.1/../../../../arm-none-eabi/lib/thumb/v7-m/nofp\libm.a(lib_a-s_ceil.o)
 .ARM.attributes
                0x00000000       0x2d d:/progra~2/stm32c~1/gnu-to~1/bin/../lib/gcc/arm-none-eabi/9.2.1/../../../../arm-none-eabi/lib/thumb/v7-m/nofp\libm.a(lib_a-s_ceil.o)
 .text          0x00000000        0x0 d:/progra~2/stm32c~1/gnu-to~1/bin/../lib/gcc/arm-none-eabi/9.2.1/../../../../arm-none-eabi/lib/thumb/v7-m/nofp\libm.a(lib_a-s_floor.o)
 .data          0x00000000        0x0 d:/progra~2/stm32c~1/gnu-to~1/bin/../lib/gcc/arm-none-eabi/9.2.1/../../../../arm-none-eabi/lib/thumb/v7-m/nofp\libm.a(lib_a-s_floor.o)
 .bss           0x00000000        0x0 d:/progra~2/stm32c~1/gnu-to~1/bin/../lib/gcc/arm-none-eabi/9.2.1/../../../../arm-none-eabi/lib/thumb/v7-m/nofp\libm.a(lib_a-s_floor.o)
 .debug_frame   0x00000000       0x30 d:/progra~2/stm32c~1/gnu-to~1/bin/../lib/gcc/arm-none-eabi/9.2.1/../../../../arm-none-eabi/lib/thumb/v7-m/nofp\libm.a(lib_a-s_floor.o)
 .ARM.attributes
                0x00000000       0x2d d:/progra~2/stm32c~1/gnu-to~1/bin/../lib/gcc/arm-none-eabi/9.2.1/../../../../arm-none-eabi/lib/thumb/v7-m/nofp\libm.a(lib_a-s_floor.o)
 .text          0x00000000        0x0 d:/progra~2/stm32c~1/gnu-to~1/bin/../lib/gcc/arm-none-eabi/9.2.1/../../../../arm-none-eabi/lib/thumb/v7-m/nofp\libm.a(lib_a-s_lround.o)
 .data          0x00000000        0x0 d:/progra~2/stm32c~1/gnu-to~1/bin/../lib/gcc/arm-none-eabi/9.2.1/../../../../arm-none-eabi/lib/thumb/v7-m/nofp\libm.a(lib_a-s_lround.o)
 .bss           0x00000000        0x0 d:/progra~2/stm32c~1/gnu-to~1/bin/../lib/gcc/arm-none-eabi/9.2.1/../../../../arm-none-eabi/lib/thumb/v7-m/nofp\libm.a(lib_a-s_lround.o)
 .debug_frame   0x00000000       0x2c d:/progra~2/stm32c~1/gnu-to~1/bin/../lib/gcc/arm-none-eabi/9.2.1/../../../../arm-none-eabi/lib/thumb/v7-m/nofp\libm.a(lib_a-s_lround.o)
 .ARM.attributes
                0x00000000       0x2d d:/progra~2/stm32c~1/gnu-to~1/bin/../lib/gcc/arm-none-eabi/9.2.1/../../../../arm-none-eabi/lib/thumb/v7-m/nofp\libm.a(lib_a-s_lround.o)
 .text          0x00000000        0x0 d:/progra~2/stm32c~1/gnu-to~1/bin/../lib/gcc/arm-none-eabi/9.2.1/../../../../arm-none-eabi/lib/thumb/v7-m/nofp\libm.a(lib_a-s_round.o)
 .data          0x00000000        0x0 d:/progra~2/stm32c~1/gnu-to~1/bin/../lib/gcc/arm-none-eabi/9.2.1/../../../../arm-none-eabi/lib/thumb/v7-m/nofp\libm.a(lib_a-s_round.o)
 .bss           0x00000000        0x0 d:/progra~2/stm32c~1/gnu-to~1/bin/../lib/gcc/arm-none-eabi/9.2.1/../../../../arm-none-eabi/lib/thumb/v7-m/nofp\libm.a(lib_a-s_round.o)
 .debug_frame   0x00000000       0x30 d:/progra~2/stm32c~1/gnu-to~1/bin/../lib/gcc/arm-none-eabi/9.2.1/../../../../arm-none-eabi/lib/thumb/v7-m/nofp\libm.a(lib_a-s_round.o)
 .ARM.attributes
                0x00000000       0x2d d:/progra~2/stm32c~1/gnu-to~1/bin/../lib/gcc/arm-none-eabi/9.2.1/../../../../arm-none-eabi/lib/thumb/v7-m/nofp\libm.a(lib_a-s_round.o)
 .text          0x00000000        0x0 d:/progra~2/stm32c~1/gnu-to~1/bin/../lib/gcc/arm-none-eabi/9.2.1/../../../../arm-none-eabi/lib/thumb/v7-m/nofp\libm.a(lib_a-s_trunc.o)
 .data          0x00000000        0x0 d:/progra~2/stm32c~1/gnu-to~1/bin/../lib/gcc/arm-none-eabi/9.2.1/../../../../arm-none-eabi/lib/thumb/v7-m/nofp\libm.a(lib_a-s_trunc.o)
 .bss           0x00000000        0x0 d:/progra~2/stm32c~1/gnu-to~1/bin/../lib/gcc/arm-none-eabi/9.2.1/../../../../arm-none-eabi/lib/thumb/v7-m/nofp\libm.a(lib_a-s_trunc.o)
 .debug_frame   0x00000000       0x30 d:/progra~2/stm32c~1/gnu-to~1/bin/../lib/gcc/arm-none-eabi/9.2.1/../../../../arm-none-eabi/lib/thumb/v7-m/nofp\libm.a(lib_a-s_trunc.o)
 .ARM.attributes
                0x00000000       0x2d d:/progra~2/stm32c~1/gnu-to~1/bin/../lib/gcc/arm-none-eabi/9.2.1/../../../../arm-none-eabi/lib/thumb/v7-m/nofp\libm.a(lib_a-s_trunc.o)
 .text          0x00000000        0x0 d:/progra~2/stm32c~1/gnu-to~1/bin/../lib/gcc/arm-none-eabi/9.2.1/../../../../arm-none-eabi/lib/thumb/v7-m/nofp\libm.a(lib_a-sf_ceil.o)
 .data          0x00000000        0x0 d:/progra~2/stm32c~1/gnu-to~1/bin/../lib/gcc/arm-none-eabi/9.2.1/../../../../arm-none-eabi/lib/thumb/v7-m/nofp\libm.a(lib_a-sf_ceil.o)
 .bss           0x00000000        0x0 d:/progra~2/stm32c~1/gnu-to~1/bin/../lib/gcc/arm-none-eabi/9.2.1/../../../../arm-none-eabi/lib/thumb/v7-m/nofp\libm.a(lib_a-sf_ceil.o)
 .debug_frame   0x00000000       0x30 d:/progra~2/stm32c~1/gnu-to~1/bin/../lib/gcc/arm-none-eabi/9.2.1/../../../../arm-none-eabi/lib/thumb/v7-m/nofp\libm.a(lib_a-sf_ceil.o)
 .ARM.attributes
                0x00000000       0x2d d:/progra~2/stm32c~1/gnu-to~1/bin/../lib/gcc/arm-none-eabi/9.2.1/../../../../arm-none-eabi/lib/thumb/v7-m/nofp\libm.a(lib_a-sf_ceil.o)
 .text          0x00000000        0x0 d:/progra~2/stm32c~1/gnu-to~1/bin/../lib/gcc/arm-none-eabi/9.2.1/../../../../arm-none-eabi/lib/thumb/v7-m/nofp\libm.a(lib_a-sf_cos.o)
 .data          0x00000000        0x0 d:/progra~2/stm32c~1/gnu-to~1/bin/../lib/gcc/arm-none-eabi/9.2.1/../../../../arm-none-eabi/lib/thumb/v7-m/nofp\libm.a(lib_a-sf_cos.o)
 .bss           0x00000000        0x0 d:/progra~2/stm32c~1/gnu-to~1/bin/../lib/gcc/arm-none-eabi/9.2.1/../../../../arm-none-eabi/lib/thumb/v7-m/nofp\libm.a(lib_a-sf_cos.o)
 .debug_frame   0x00000000       0x34 d:/progra~2/stm32c~1/gnu-to~1/bin/../lib/gcc/arm-none-eabi/9.2.1/../../../../arm-none-eabi/lib/thumb/v7-m/nofp\libm.a(lib_a-sf_cos.o)
 .ARM.attributes
                0x00000000       0x2d d:/progra~2/stm32c~1/gnu-to~1/bin/../lib/gcc/arm-none-eabi/9.2.1/../../../../arm-none-eabi/lib/thumb/v7-m/nofp\libm.a(lib_a-sf_cos.o)
 .text          0x00000000        0x0 d:/progra~2/stm32c~1/gnu-to~1/bin/../lib/gcc/arm-none-eabi/9.2.1/../../../../arm-none-eabi/lib/thumb/v7-m/nofp\libm.a(lib_a-sf_sin.o)
 .data          0x00000000        0x0 d:/progra~2/stm32c~1/gnu-to~1/bin/../lib/gcc/arm-none-eabi/9.2.1/../../../../arm-none-eabi/lib/thumb/v7-m/nofp\libm.a(lib_a-sf_sin.o)
 .bss           0x00000000        0x0 d:/progra~2/stm32c~1/gnu-to~1/bin/../lib/gcc/arm-none-eabi/9.2.1/../../../../arm-none-eabi/lib/thumb/v7-m/nofp\libm.a(lib_a-sf_sin.o)
 .debug_frame   0x00000000       0x34 d:/progra~2/stm32c~1/gnu-to~1/bin/../lib/gcc/arm-none-eabi/9.2.1/../../../../arm-none-eabi/lib/thumb/v7-m/nofp\libm.a(lib_a-sf_sin.o)
 .ARM.attributes
                0x00000000       0x2d d:/progra~2/stm32c~1/gnu-to~1/bin/../lib/gcc/arm-none-eabi/9.2.1/../../../../arm-none-eabi/lib/thumb/v7-m/nofp\libm.a(lib_a-sf_sin.o)
 .text          0x00000000        0x0 d:/progra~2/stm32c~1/gnu-to~1/bin/../lib/gcc/arm-none-eabi/9.2.1/../../../../arm-none-eabi/lib/thumb/v7-m/nofp\libm.a(lib_a-w_sqrt.o)
 .data          0x00000000        0x0 d:/progra~2/stm32c~1/gnu-to~1/bin/../lib/gcc/arm-none-eabi/9.2.1/../../../../arm-none-eabi/lib/thumb/v7-m/nofp\libm.a(lib_a-w_sqrt.o)
 .bss           0x00000000        0x0 d:/progra~2/stm32c~1/gnu-to~1/bin/../lib/gcc/arm-none-eabi/9.2.1/../../../../arm-none-eabi/lib/thumb/v7-m/nofp\libm.a(lib_a-w_sqrt.o)
 .debug_frame   0x00000000       0x44 d:/progra~2/stm32c~1/gnu-to~1/bin/../lib/gcc/arm-none-eabi/9.2.1/../../../../arm-none-eabi/lib/thumb/v7-m/nofp\libm.a(lib_a-w_sqrt.o)
 .ARM.attributes
                0x00000000       0x2d d:/progra~2/stm32c~1/gnu-to~1/bin/../lib/gcc/arm-none-eabi/9.2.1/../../../../arm-none-eabi/lib/thumb/v7-m/nofp\libm.a(lib_a-w_sqrt.o)
 .text          0x00000000        0x0 d:/progra~2/stm32c~1/gnu-to~1/bin/../lib/gcc/arm-none-eabi/9.2.1/../../../../arm-none-eabi/lib/thumb/v7-m/nofp\libm.a(lib_a-wf_atan2.o)
 .data          0x00000000        0x0 d:/progra~2/stm32c~1/gnu-to~1/bin/../lib/gcc/arm-none-eabi/9.2.1/../../../../arm-none-eabi/lib/thumb/v7-m/nofp\libm.a(lib_a-wf_atan2.o)
 .bss           0x00000000        0x0 d:/progra~2/stm32c~1/gnu-to~1/bin/../lib/gcc/arm-none-eabi/9.2.1/../../../../arm-none-eabi/lib/thumb/v7-m/nofp\libm.a(lib_a-wf_atan2.o)
 .debug_frame   0x00000000       0x20 d:/progra~2/stm32c~1/gnu-to~1/bin/../lib/gcc/arm-none-eabi/9.2.1/../../../../arm-none-eabi/lib/thumb/v7-m/nofp\libm.a(lib_a-wf_atan2.o)
 .ARM.attributes
                0x00000000       0x2d d:/progra~2/stm32c~1/gnu-to~1/bin/../lib/gcc/arm-none-eabi/9.2.1/../../../../arm-none-eabi/lib/thumb/v7-m/nofp\libm.a(lib_a-wf_atan2.o)
 .text          0x00000000        0x0 d:/progra~2/stm32c~1/gnu-to~1/bin/../lib/gcc/arm-none-eabi/9.2.1/../../../../arm-none-eabi/lib/thumb/v7-m/nofp\libm.a(lib_a-wf_sqrt.o)
 .data          0x00000000        0x0 d:/progra~2/stm32c~1/gnu-to~1/bin/../lib/gcc/arm-none-eabi/9.2.1/../../../../arm-none-eabi/lib/thumb/v7-m/nofp\libm.a(lib_a-wf_sqrt.o)
 .bss           0x00000000        0x0 d:/progra~2/stm32c~1/gnu-to~1/bin/../lib/gcc/arm-none-eabi/9.2.1/../../../../arm-none-eabi/lib/thumb/v7-m/nofp\libm.a(lib_a-wf_sqrt.o)
 .debug_frame   0x00000000       0x3c d:/progra~2/stm32c~1/gnu-to~1/bin/../lib/gcc/arm-none-eabi/9.2.1/../../../../arm-none-eabi/lib/thumb/v7-m/nofp\libm.a(lib_a-wf_sqrt.o)
 .ARM.attributes
                0x00000000       0x2d d:/progra~2/stm32c~1/gnu-to~1/bin/../lib/gcc/arm-none-eabi/9.2.1/../../../../arm-none-eabi/lib/thumb/v7-m/nofp\libm.a(lib_a-wf_sqrt.o)
 .text          0x00000000        0x0 d:/progra~2/stm32c~1/gnu-to~1/bin/../lib/gcc/arm-none-eabi/9.2.1/../../../../arm-none-eabi/lib/thumb/v7-m/nofp\libm.a(lib_a-e_sqrt.o)
 .data          0x00000000        0x0 d:/progra~2/stm32c~1/gnu-to~1/bin/../lib/gcc/arm-none-eabi/9.2.1/../../../../arm-none-eabi/lib/thumb/v7-m/nofp\libm.a(lib_a-e_sqrt.o)
 .bss           0x00000000        0x0 d:/progra~2/stm32c~1/gnu-to~1/bin/../lib/gcc/arm-none-eabi/9.2.1/../../../../arm-none-eabi/lib/thumb/v7-m/nofp\libm.a(lib_a-e_sqrt.o)
 .debug_frame   0x00000000       0x30 d:/progra~2/stm32c~1/gnu-to~1/bin/../lib/gcc/arm-none-eabi/9.2.1/../../../../arm-none-eabi/lib/thumb/v7-m/nofp\libm.a(lib_a-e_sqrt.o)
 .ARM.attributes
                0x00000000       0x2d d:/progra~2/stm32c~1/gnu-to~1/bin/../lib/gcc/arm-none-eabi/9.2.1/../../../../arm-none-eabi/lib/thumb/v7-m/nofp\libm.a(lib_a-e_sqrt.o)
 .text          0x00000000        0x0 d:/progra~2/stm32c~1/gnu-to~1/bin/../lib/gcc/arm-none-eabi/9.2.1/../../../../arm-none-eabi/lib/thumb/v7-m/nofp\libm.a(lib_a-ef_atan2.o)
 .data          0x00000000        0x0 d:/progra~2/stm32c~1/gnu-to~1/bin/../lib/gcc/arm-none-eabi/9.2.1/../../../../arm-none-eabi/lib/thumb/v7-m/nofp\libm.a(lib_a-ef_atan2.o)
 .bss           0x00000000        0x0 d:/progra~2/stm32c~1/gnu-to~1/bin/../lib/gcc/arm-none-eabi/9.2.1/../../../../arm-none-eabi/lib/thumb/v7-m/nofp\libm.a(lib_a-ef_atan2.o)
 .debug_frame   0x00000000       0x3c d:/progra~2/stm32c~1/gnu-to~1/bin/../lib/gcc/arm-none-eabi/9.2.1/../../../../arm-none-eabi/lib/thumb/v7-m/nofp\libm.a(lib_a-ef_atan2.o)
 .ARM.attributes
                0x00000000       0x2d d:/progra~2/stm32c~1/gnu-to~1/bin/../lib/gcc/arm-none-eabi/9.2.1/../../../../arm-none-eabi/lib/thumb/v7-m/nofp\libm.a(lib_a-ef_atan2.o)
 .text          0x00000000        0x0 d:/progra~2/stm32c~1/gnu-to~1/bin/../lib/gcc/arm-none-eabi/9.2.1/../../../../arm-none-eabi/lib/thumb/v7-m/nofp\libm.a(lib_a-ef_rem_pio2.o)
 .data          0x00000000        0x0 d:/progra~2/stm32c~1/gnu-to~1/bin/../lib/gcc/arm-none-eabi/9.2.1/../../../../arm-none-eabi/lib/thumb/v7-m/nofp\libm.a(lib_a-ef_rem_pio2.o)
 .bss           0x00000000        0x0 d:/progra~2/stm32c~1/gnu-to~1/bin/../lib/gcc/arm-none-eabi/9.2.1/../../../../arm-none-eabi/lib/thumb/v7-m/nofp\libm.a(lib_a-ef_rem_pio2.o)
 .debug_frame   0x00000000       0x4c d:/progra~2/stm32c~1/gnu-to~1/bin/../lib/gcc/arm-none-eabi/9.2.1/../../../../arm-none-eabi/lib/thumb/v7-m/nofp\libm.a(lib_a-ef_rem_pio2.o)
 .ARM.attributes
                0x00000000       0x2d d:/progra~2/stm32c~1/gnu-to~1/bin/../lib/gcc/arm-none-eabi/9.2.1/../../../../arm-none-eabi/lib/thumb/v7-m/nofp\libm.a(lib_a-ef_rem_pio2.o)
 .text          0x00000000        0x0 d:/progra~2/stm32c~1/gnu-to~1/bin/../lib/gcc/arm-none-eabi/9.2.1/../../../../arm-none-eabi/lib/thumb/v7-m/nofp\libm.a(lib_a-ef_sqrt.o)
 .data          0x00000000        0x0 d:/progra~2/stm32c~1/gnu-to~1/bin/../lib/gcc/arm-none-eabi/9.2.1/../../../../arm-none-eabi/lib/thumb/v7-m/nofp\libm.a(lib_a-ef_sqrt.o)
 .bss           0x00000000        0x0 d:/progra~2/stm32c~1/gnu-to~1/bin/../lib/gcc/arm-none-eabi/9.2.1/../../../../arm-none-eabi/lib/thumb/v7-m/nofp\libm.a(lib_a-ef_sqrt.o)
 .debug_frame   0x00000000       0x30 d:/progra~2/stm32c~1/gnu-to~1/bin/../lib/gcc/arm-none-eabi/9.2.1/../../../../arm-none-eabi/lib/thumb/v7-m/nofp\libm.a(lib_a-ef_sqrt.o)
 .ARM.attributes
                0x00000000       0x2d d:/progra~2/stm32c~1/gnu-to~1/bin/../lib/gcc/arm-none-eabi/9.2.1/../../../../arm-none-eabi/lib/thumb/v7-m/nofp\libm.a(lib_a-ef_sqrt.o)
 .text          0x00000000        0x0 d:/progra~2/stm32c~1/gnu-to~1/bin/../lib/gcc/arm-none-eabi/9.2.1/../../../../arm-none-eabi/lib/thumb/v7-m/nofp\libm.a(lib_a-kf_cos.o)
 .data          0x00000000        0x0 d:/progra~2/stm32c~1/gnu-to~1/bin/../lib/gcc/arm-none-eabi/9.2.1/../../../../arm-none-eabi/lib/thumb/v7-m/nofp\libm.a(lib_a-kf_cos.o)
 .bss           0x00000000        0x0 d:/progra~2/stm32c~1/gnu-to~1/bin/../lib/gcc/arm-none-eabi/9.2.1/../../../../arm-none-eabi/lib/thumb/v7-m/nofp\libm.a(lib_a-kf_cos.o)
 .debug_frame   0x00000000       0x34 d:/progra~2/stm32c~1/gnu-to~1/bin/../lib/gcc/arm-none-eabi/9.2.1/../../../../arm-none-eabi/lib/thumb/v7-m/nofp\libm.a(lib_a-kf_cos.o)
 .ARM.attributes
                0x00000000       0x2d d:/progra~2/stm32c~1/gnu-to~1/bin/../lib/gcc/arm-none-eabi/9.2.1/../../../../arm-none-eabi/lib/thumb/v7-m/nofp\libm.a(lib_a-kf_cos.o)
 .text          0x00000000        0x0 d:/progra~2/stm32c~1/gnu-to~1/bin/../lib/gcc/arm-none-eabi/9.2.1/../../../../arm-none-eabi/lib/thumb/v7-m/nofp\libm.a(lib_a-kf_rem_pio2.o)
 .data          0x00000000        0x0 d:/progra~2/stm32c~1/gnu-to~1/bin/../lib/gcc/arm-none-eabi/9.2.1/../../../../arm-none-eabi/lib/thumb/v7-m/nofp\libm.a(lib_a-kf_rem_pio2.o)
 .bss           0x00000000        0x0 d:/progra~2/stm32c~1/gnu-to~1/bin/../lib/gcc/arm-none-eabi/9.2.1/../../../../arm-none-eabi/lib/thumb/v7-m/nofp\libm.a(lib_a-kf_rem_pio2.o)
 .debug_frame   0x00000000       0x50 d:/progra~2/stm32c~1/gnu-to~1/bin/../lib/gcc/arm-none-eabi/9.2.1/../../../../arm-none-eabi/lib/thumb/v7-m/nofp\libm.a(lib_a-kf_rem_pio2.o)
 .ARM.attributes
                0x00000000       0x2d d:/progra~2/stm32c~1/gnu-to~1/bin/../lib/gcc/arm-none-eabi/9.2.1/../../../../arm-none-eabi/lib/thumb/v7-m/nofp\libm.a(lib_a-kf_rem_pio2.o)
 .text          0x00000000        0x0 d:/progra~2/stm32c~1/gnu-to~1/bin/../lib/gcc/arm-none-eabi/9.2.1/../../../../arm-none-eabi/lib/thumb/v7-m/nofp\libm.a(lib_a-kf_sin.o)
 .data          0x00000000        0x0 d:/progra~2/stm32c~1/gnu-to~1/bin/../lib/gcc/arm-none-eabi/9.2.1/../../../../arm-none-eabi/lib/thumb/v7-m/nofp\libm.a(lib_a-kf_sin.o)
 .bss           0x00000000        0x0 d:/progra~2/stm32c~1/gnu-to~1/bin/../lib/gcc/arm-none-eabi/9.2.1/../../../../arm-none-eabi/lib/thumb/v7-m/nofp\libm.a(lib_a-kf_sin.o)
 .debug_frame   0x00000000       0x34 d:/progra~2/stm32c~1/gnu-to~1/bin/../lib/gcc/arm-none-eabi/9.2.1/../../../../arm-none-eabi/lib/thumb/v7-m/nofp\libm.a(lib_a-kf_sin.o)
 .ARM.attributes
                0x00000000       0x2d d:/progra~2/stm32c~1/gnu-to~1/bin/../lib/gcc/arm-none-eabi/9.2.1/../../../../arm-none-eabi/lib/thumb/v7-m/nofp\libm.a(lib_a-kf_sin.o)
 .text          0x00000000        0x0 d:/progra~2/stm32c~1/gnu-to~1/bin/../lib/gcc/arm-none-eabi/9.2.1/../../../../arm-none-eabi/lib/thumb/v7-m/nofp\libm.a(lib_a-s_lib_ver.o)
 .data          0x00000000        0x0 d:/progra~2/stm32c~1/gnu-to~1/bin/../lib/gcc/arm-none-eabi/9.2.1/../../../../arm-none-eabi/lib/thumb/v7-m/nofp\libm.a(lib_a-s_lib_ver.o)
 .bss           0x00000000        0x0 d:/progra~2/stm32c~1/gnu-to~1/bin/../lib/gcc/arm-none-eabi/9.2.1/../../../../arm-none-eabi/lib/thumb/v7-m/nofp\libm.a(lib_a-s_lib_ver.o)
 .ARM.attributes
                0x00000000       0x2d d:/progra~2/stm32c~1/gnu-to~1/bin/../lib/gcc/arm-none-eabi/9.2.1/../../../../arm-none-eabi/lib/thumb/v7-m/nofp\libm.a(lib_a-s_lib_ver.o)
 .text          0x00000000        0x0 d:/progra~2/stm32c~1/gnu-to~1/bin/../lib/gcc/arm-none-eabi/9.2.1/../../../../arm-none-eabi/lib/thumb/v7-m/nofp\libm.a(lib_a-s_matherr.o)
 .data          0x00000000        0x0 d:/progra~2/stm32c~1/gnu-to~1/bin/../lib/gcc/arm-none-eabi/9.2.1/../../../../arm-none-eabi/lib/thumb/v7-m/nofp\libm.a(lib_a-s_matherr.o)
 .bss           0x00000000        0x0 d:/progra~2/stm32c~1/gnu-to~1/bin/../lib/gcc/arm-none-eabi/9.2.1/../../../../arm-none-eabi/lib/thumb/v7-m/nofp\libm.a(lib_a-s_matherr.o)
 .debug_frame   0x00000000       0x20 d:/progra~2/stm32c~1/gnu-to~1/bin/../lib/gcc/arm-none-eabi/9.2.1/../../../../arm-none-eabi/lib/thumb/v7-m/nofp\libm.a(lib_a-s_matherr.o)
 .ARM.attributes
                0x00000000       0x2d d:/progra~2/stm32c~1/gnu-to~1/bin/../lib/gcc/arm-none-eabi/9.2.1/../../../../arm-none-eabi/lib/thumb/v7-m/nofp\libm.a(lib_a-s_matherr.o)
 .text          0x00000000        0x0 d:/progra~2/stm32c~1/gnu-to~1/bin/../lib/gcc/arm-none-eabi/9.2.1/../../../../arm-none-eabi/lib/thumb/v7-m/nofp\libm.a(lib_a-sf_atan.o)
 .data          0x00000000        0x0 d:/progra~2/stm32c~1/gnu-to~1/bin/../lib/gcc/arm-none-eabi/9.2.1/../../../../arm-none-eabi/lib/thumb/v7-m/nofp\libm.a(lib_a-sf_atan.o)
 .bss           0x00000000        0x0 d:/progra~2/stm32c~1/gnu-to~1/bin/../lib/gcc/arm-none-eabi/9.2.1/../../../../arm-none-eabi/lib/thumb/v7-m/nofp\libm.a(lib_a-sf_atan.o)
 .debug_frame   0x00000000       0x30 d:/progra~2/stm32c~1/gnu-to~1/bin/../lib/gcc/arm-none-eabi/9.2.1/../../../../arm-none-eabi/lib/thumb/v7-m/nofp\libm.a(lib_a-sf_atan.o)
 .ARM.attributes
                0x00000000       0x2d d:/progra~2/stm32c~1/gnu-to~1/bin/../lib/gcc/arm-none-eabi/9.2.1/../../../../arm-none-eabi/lib/thumb/v7-m/nofp\libm.a(lib_a-sf_atan.o)
 .text          0x00000000        0x0 d:/progra~2/stm32c~1/gnu-to~1/bin/../lib/gcc/arm-none-eabi/9.2.1/../../../../arm-none-eabi/lib/thumb/v7-m/nofp\libm.a(lib_a-sf_fabs.o)
 .data          0x00000000        0x0 d:/progra~2/stm32c~1/gnu-to~1/bin/../lib/gcc/arm-none-eabi/9.2.1/../../../../arm-none-eabi/lib/thumb/v7-m/nofp\libm.a(lib_a-sf_fabs.o)
 .bss           0x00000000        0x0 d:/progra~2/stm32c~1/gnu-to~1/bin/../lib/gcc/arm-none-eabi/9.2.1/../../../../arm-none-eabi/lib/thumb/v7-m/nofp\libm.a(lib_a-sf_fabs.o)
 .debug_frame   0x00000000       0x20 d:/progra~2/stm32c~1/gnu-to~1/bin/../lib/gcc/arm-none-eabi/9.2.1/../../../../arm-none-eabi/lib/thumb/v7-m/nofp\libm.a(lib_a-sf_fabs.o)
 .ARM.attributes
                0x00000000       0x2d d:/progra~2/stm32c~1/gnu-to~1/bin/../lib/gcc/arm-none-eabi/9.2.1/../../../../arm-none-eabi/lib/thumb/v7-m/nofp\libm.a(lib_a-sf_fabs.o)
 .text          0x00000000        0x0 d:/progra~2/stm32c~1/gnu-to~1/bin/../lib/gcc/arm-none-eabi/9.2.1/../../../../arm-none-eabi/lib/thumb/v7-m/nofp\libm.a(lib_a-sf_floor.o)
 .data          0x00000000        0x0 d:/progra~2/stm32c~1/gnu-to~1/bin/../lib/gcc/arm-none-eabi/9.2.1/../../../../arm-none-eabi/lib/thumb/v7-m/nofp\libm.a(lib_a-sf_floor.o)
 .bss           0x00000000        0x0 d:/progra~2/stm32c~1/gnu-to~1/bin/../lib/gcc/arm-none-eabi/9.2.1/../../../../arm-none-eabi/lib/thumb/v7-m/nofp\libm.a(lib_a-sf_floor.o)
 .debug_frame   0x00000000       0x30 d:/progra~2/stm32c~1/gnu-to~1/bin/../lib/gcc/arm-none-eabi/9.2.1/../../../../arm-none-eabi/lib/thumb/v7-m/nofp\libm.a(lib_a-sf_floor.o)
 .ARM.attributes
                0x00000000       0x2d d:/progra~2/stm32c~1/gnu-to~1/bin/../lib/gcc/arm-none-eabi/9.2.1/../../../../arm-none-eabi/lib/thumb/v7-m/nofp\libm.a(lib_a-sf_floor.o)
 .text          0x00000000        0x0 d:/progra~2/stm32c~1/gnu-to~1/bin/../lib/gcc/arm-none-eabi/9.2.1/../../../../arm-none-eabi/lib/thumb/v7-m/nofp\libm.a(lib_a-sf_scalbn.o)
 .data          0x00000000        0x0 d:/progra~2/stm32c~1/gnu-to~1/bin/../lib/gcc/arm-none-eabi/9.2.1/../../../../arm-none-eabi/lib/thumb/v7-m/nofp\libm.a(lib_a-sf_scalbn.o)
 .bss           0x00000000        0x0 d:/progra~2/stm32c~1/gnu-to~1/bin/../lib/gcc/arm-none-eabi/9.2.1/../../../../arm-none-eabi/lib/thumb/v7-m/nofp\libm.a(lib_a-sf_scalbn.o)
 .debug_frame   0x00000000       0x2c d:/progra~2/stm32c~1/gnu-to~1/bin/../lib/gcc/arm-none-eabi/9.2.1/../../../../arm-none-eabi/lib/thumb/v7-m/nofp\libm.a(lib_a-sf_scalbn.o)
 .ARM.attributes
                0x00000000       0x2d d:/progra~2/stm32c~1/gnu-to~1/bin/../lib/gcc/arm-none-eabi/9.2.1/../../../../arm-none-eabi/lib/thumb/v7-m/nofp\libm.a(lib_a-sf_scalbn.o)
 .data          0x00000000        0x0 d:/progra~2/stm32c~1/gnu-to~1/bin/../lib/gcc/arm-none-eabi/9.2.1/thumb/v7-m/nofp\libgcc.a(_arm_unorddf2.o)
 .bss           0x00000000        0x0 d:/progra~2/stm32c~1/gnu-to~1/bin/../lib/gcc/arm-none-eabi/9.2.1/thumb/v7-m/nofp\libgcc.a(_arm_unorddf2.o)
 .debug_frame   0x00000000       0x20 d:/progra~2/stm32c~1/gnu-to~1/bin/../lib/gcc/arm-none-eabi/9.2.1/thumb/v7-m/nofp\libgcc.a(_arm_unorddf2.o)
 .ARM.attributes
                0x00000000       0x1d d:/progra~2/stm32c~1/gnu-to~1/bin/../lib/gcc/arm-none-eabi/9.2.1/thumb/v7-m/nofp\libgcc.a(_arm_unorddf2.o)
 .data          0x00000000        0x0 d:/progra~2/stm32c~1/gnu-to~1/bin/../lib/gcc/arm-none-eabi/9.2.1/thumb/v7-m/nofp\libgcc.a(_arm_fixdfsi.o)
 .bss           0x00000000        0x0 d:/progra~2/stm32c~1/gnu-to~1/bin/../lib/gcc/arm-none-eabi/9.2.1/thumb/v7-m/nofp\libgcc.a(_arm_fixdfsi.o)
 .debug_frame   0x00000000       0x24 d:/progra~2/stm32c~1/gnu-to~1/bin/../lib/gcc/arm-none-eabi/9.2.1/thumb/v7-m/nofp\libgcc.a(_arm_fixdfsi.o)
 .ARM.attributes
                0x00000000       0x1d d:/progra~2/stm32c~1/gnu-to~1/bin/../lib/gcc/arm-none-eabi/9.2.1/thumb/v7-m/nofp\libgcc.a(_arm_fixdfsi.o)
 .data          0x00000000        0x0 d:/progra~2/stm32c~1/gnu-to~1/bin/../lib/gcc/arm-none-eabi/9.2.1/thumb/v7-m/nofp\libgcc.a(_arm_unordsf2.o)
 .bss           0x00000000        0x0 d:/progra~2/stm32c~1/gnu-to~1/bin/../lib/gcc/arm-none-eabi/9.2.1/thumb/v7-m/nofp\libgcc.a(_arm_unordsf2.o)
 .debug_frame   0x00000000       0x24 d:/progra~2/stm32c~1/gnu-to~1/bin/../lib/gcc/arm-none-eabi/9.2.1/thumb/v7-m/nofp\libgcc.a(_arm_unordsf2.o)
 .ARM.attributes
                0x00000000       0x1d d:/progra~2/stm32c~1/gnu-to~1/bin/../lib/gcc/arm-none-eabi/9.2.1/thumb/v7-m/nofp\libgcc.a(_arm_unordsf2.o)

Memory Configuration

Name             Origin             Length             Attributes
RAM              0x20000000         0x00005000         xrw
FLASH            0x08000000         0x00010000         xr
*default*        0x00000000         0xffffffff

Linker script and memory map

LOAD d:/progra~2/stm32c~1/gnu-to~1/bin/../lib/gcc/arm-none-eabi/9.2.1/thumb/v7-m/nofp/crti.o
LOAD d:/progra~2/stm32c~1/gnu-to~1/bin/../lib/gcc/arm-none-eabi/9.2.1/thumb/v7-m/nofp/crtbegin.o
LOAD d:/progra~2/stm32c~1/gnu-to~1/bin/../lib/gcc/arm-none-eabi/9.2.1/../../../../arm-none-eabi/lib/thumb/v7-m/nofp/crt0.o
LOAD CMakeFiles/GRBL_STM32F103.elf.dir/App/bsp/inoutputs.c.obj
LOAD CMakeFiles/GRBL_STM32F103.elf.dir/App/bsp/stm32utilities.c.obj
LOAD CMakeFiles/GRBL_STM32F103.elf.dir/App/grbl/coolant_control.c.obj
LOAD CMakeFiles/GRBL_STM32F103.elf.dir/App/grbl/eeprom.c.obj
LOAD CMakeFiles/GRBL_STM32F103.elf.dir/App/grbl/gcode.c.obj
LOAD CMakeFiles/GRBL_STM32F103.elf.dir/App/grbl/jog.c.obj
LOAD CMakeFiles/GRBL_STM32F103.elf.dir/App/grbl/limits.c.obj
LOAD CMakeFiles/GRBL_STM32F103.elf.dir/App/grbl/motion_control.c.obj
LOAD CMakeFiles/GRBL_STM32F103.elf.dir/App/grbl/nuts_bolts.c.obj
LOAD CMakeFiles/GRBL_STM32F103.elf.dir/App/grbl/planner.c.obj
LOAD CMakeFiles/GRBL_STM32F103.elf.dir/App/grbl/print.c.obj
LOAD CMakeFiles/GRBL_STM32F103.elf.dir/App/grbl/probe.c.obj
LOAD CMakeFiles/GRBL_STM32F103.elf.dir/App/grbl/protocol.c.obj
LOAD CMakeFiles/GRBL_STM32F103.elf.dir/App/grbl/report.c.obj
LOAD CMakeFiles/GRBL_STM32F103.elf.dir/App/grbl/serial.c.obj
LOAD CMakeFiles/GRBL_STM32F103.elf.dir/App/grbl/settings.c.obj
LOAD CMakeFiles/GRBL_STM32F103.elf.dir/App/grbl/spindle_control.c.obj
LOAD CMakeFiles/GRBL_STM32F103.elf.dir/App/grbl/stepper.c.obj
LOAD CMakeFiles/GRBL_STM32F103.elf.dir/App/grbl/system.c.obj
LOAD CMakeFiles/GRBL_STM32F103.elf.dir/Drivers/STM32F1xx_HAL_Driver/Src/stm32f1xx_hal.c.obj
LOAD CMakeFiles/GRBL_STM32F103.elf.dir/Drivers/STM32F1xx_HAL_Driver/Src/stm32f1xx_hal_cortex.c.obj
LOAD CMakeFiles/GRBL_STM32F103.elf.dir/Drivers/STM32F1xx_HAL_Driver/Src/stm32f1xx_hal_dma.c.obj
LOAD CMakeFiles/GRBL_STM32F103.elf.dir/Drivers/STM32F1xx_HAL_Driver/Src/stm32f1xx_hal_exti.c.obj
LOAD CMakeFiles/GRBL_STM32F103.elf.dir/Drivers/STM32F1xx_HAL_Driver/Src/stm32f1xx_hal_flash.c.obj
LOAD CMakeFiles/GRBL_STM32F103.elf.dir/Drivers/STM32F1xx_HAL_Driver/Src/stm32f1xx_hal_flash_ex.c.obj
LOAD CMakeFiles/GRBL_STM32F103.elf.dir/Drivers/STM32F1xx_HAL_Driver/Src/stm32f1xx_hal_gpio.c.obj
LOAD CMakeFiles/GRBL_STM32F103.elf.dir/Drivers/STM32F1xx_HAL_Driver/Src/stm32f1xx_hal_gpio_ex.c.obj
LOAD CMakeFiles/GRBL_STM32F103.elf.dir/Drivers/STM32F1xx_HAL_Driver/Src/stm32f1xx_hal_pwr.c.obj
LOAD CMakeFiles/GRBL_STM32F103.elf.dir/Drivers/STM32F1xx_HAL_Driver/Src/stm32f1xx_hal_rcc.c.obj
LOAD CMakeFiles/GRBL_STM32F103.elf.dir/Drivers/STM32F1xx_HAL_Driver/Src/stm32f1xx_hal_rcc_ex.c.obj
LOAD CMakeFiles/GRBL_STM32F103.elf.dir/Drivers/STM32F1xx_HAL_Driver/Src/stm32f1xx_hal_tim.c.obj
LOAD CMakeFiles/GRBL_STM32F103.elf.dir/Drivers/STM32F1xx_HAL_Driver/Src/stm32f1xx_hal_tim_ex.c.obj
LOAD CMakeFiles/GRBL_STM32F103.elf.dir/Drivers/STM32F1xx_HAL_Driver/Src/stm32f1xx_ll_dma.c.obj
LOAD CMakeFiles/GRBL_STM32F103.elf.dir/Drivers/STM32F1xx_HAL_Driver/Src/stm32f1xx_ll_exti.c.obj
LOAD CMakeFiles/GRBL_STM32F103.elf.dir/Drivers/STM32F1xx_HAL_Driver/Src/stm32f1xx_ll_gpio.c.obj
LOAD CMakeFiles/GRBL_STM32F103.elf.dir/Drivers/STM32F1xx_HAL_Driver/Src/stm32f1xx_ll_rcc.c.obj
LOAD CMakeFiles/GRBL_STM32F103.elf.dir/Drivers/STM32F1xx_HAL_Driver/Src/stm32f1xx_ll_tim.c.obj
LOAD CMakeFiles/GRBL_STM32F103.elf.dir/Drivers/STM32F1xx_HAL_Driver/Src/stm32f1xx_ll_usart.c.obj
LOAD CMakeFiles/GRBL_STM32F103.elf.dir/Drivers/STM32F1xx_HAL_Driver/Src/stm32f1xx_ll_utils.c.obj
LOAD CMakeFiles/GRBL_STM32F103.elf.dir/Src/gpio.c.obj
LOAD CMakeFiles/GRBL_STM32F103.elf.dir/Src/main.c.obj
LOAD CMakeFiles/GRBL_STM32F103.elf.dir/Src/stm32f1xx_hal_msp.c.obj
LOAD CMakeFiles/GRBL_STM32F103.elf.dir/Src/stm32f1xx_it.c.obj
LOAD CMakeFiles/GRBL_STM32F103.elf.dir/Src/syscalls.c.obj
LOAD CMakeFiles/GRBL_STM32F103.elf.dir/Src/system_stm32f1xx.c.obj
LOAD CMakeFiles/GRBL_STM32F103.elf.dir/Src/tim.c.obj
LOAD CMakeFiles/GRBL_STM32F103.elf.dir/Src/usart.c.obj
LOAD CMakeFiles/GRBL_STM32F103.elf.dir/startup/startup_stm32f103xb.s.obj
START GROUP
LOAD d:/progra~2/stm32c~1/gnu-to~1/bin/../lib/gcc/arm-none-eabi/9.2.1/thumb/v7-m/nofp\libgcc.a
LOAD d:/progra~2/stm32c~1/gnu-to~1/bin/../lib/gcc/arm-none-eabi/9.2.1/../../../../arm-none-eabi/lib/thumb/v7-m/nofp\libg_nano.a
LOAD d:/progra~2/stm32c~1/gnu-to~1/bin/../lib/gcc/arm-none-eabi/9.2.1/../../../../arm-none-eabi/lib/thumb/v7-m/nofp\libc_nano.a
END GROUP
START GROUP
LOAD d:/progra~2/stm32c~1/gnu-to~1/bin/../lib/gcc/arm-none-eabi/9.2.1/thumb/v7-m/nofp\libgcc.a
LOAD d:/progra~2/stm32c~1/gnu-to~1/bin/../lib/gcc/arm-none-eabi/9.2.1/../../../../arm-none-eabi/lib/thumb/v7-m/nofp\libc_nano.a
LOAD d:/progra~2/stm32c~1/gnu-to~1/bin/../lib/gcc/arm-none-eabi/9.2.1/../../../../arm-none-eabi/lib/thumb/v7-m/nofp\libnosys.a
END GROUP
START GROUP
LOAD d:/progra~2/stm32c~1/gnu-to~1/bin/../lib/gcc/arm-none-eabi/9.2.1/thumb/v7-m/nofp\libgcc.a
LOAD d:/progra~2/stm32c~1/gnu-to~1/bin/../lib/gcc/arm-none-eabi/9.2.1/../../../../arm-none-eabi/lib/thumb/v7-m/nofp\libc_nano.a
LOAD d:/progra~2/stm32c~1/gnu-to~1/bin/../lib/gcc/arm-none-eabi/9.2.1/../../../../arm-none-eabi/lib/thumb/v7-m/nofp\libnosys.a
END GROUP
LOAD d:/progra~2/stm32c~1/gnu-to~1/bin/../lib/gcc/arm-none-eabi/9.2.1/thumb/v7-m/nofp/crtend.o
LOAD d:/progra~2/stm32c~1/gnu-to~1/bin/../lib/gcc/arm-none-eabi/9.2.1/thumb/v7-m/nofp/crtn.o
                0x20005000                _estack = 0x20005000
                0x00000200                _Min_Heap_Size = 0x200
                0x00000400                _Min_Stack_Size = 0x400

.isr_vector     0x08000000      0x10c
                0x08000000                . = ALIGN (0x4)
 *(.isr_vector)
 .isr_vector    0x08000000      0x10c CMakeFiles/GRBL_STM32F103.elf.dir/startup/startup_stm32f103xb.s.obj
                0x08000000                g_pfnVectors
                0x0800010c                . = ALIGN (0x4)

.text           0x08000110     0xbba8
                0x08000110                . = ALIGN (0x4)
 *(.text)
 .text          0x08000110       0x40 d:/progra~2/stm32c~1/gnu-to~1/bin/../lib/gcc/arm-none-eabi/9.2.1/thumb/v7-m/nofp/crtbegin.o
 .text          0x08000150      0x378 d:/progra~2/stm32c~1/gnu-to~1/bin/../lib/gcc/arm-none-eabi/9.2.1/thumb/v7-m/nofp\libgcc.a(_arm_addsubdf3.o)
                0x08000150                __aeabi_drsub
                0x08000158                __aeabi_dsub
                0x08000158                __subdf3
                0x0800015c                __aeabi_dadd
                0x0800015c                __adddf3
                0x080003d4                __floatunsidf
                0x080003d4                __aeabi_ui2d
                0x080003f4                __floatsidf
                0x080003f4                __aeabi_i2d
                0x08000418                __aeabi_f2d
                0x08000418                __extendsfdf2
                0x0800045c                __floatundidf
                0x0800045c                __aeabi_ul2d
                0x0800046c                __floatdidf
                0x0800046c                __aeabi_l2d
 .text          0x080004c8      0x424 d:/progra~2/stm32c~1/gnu-to~1/bin/../lib/gcc/arm-none-eabi/9.2.1/thumb/v7-m/nofp\libgcc.a(_arm_muldivdf3.o)
                0x080004c8                __aeabi_dmul
                0x080004c8                __muldf3
                0x0800071c                __divdf3
                0x0800071c                __aeabi_ddiv
 .text          0x080008ec      0x110 d:/progra~2/stm32c~1/gnu-to~1/bin/../lib/gcc/arm-none-eabi/9.2.1/thumb/v7-m/nofp\libgcc.a(_arm_cmpdf2.o)
                0x080008ec                __gtdf2
                0x080008ec                __gedf2
                0x080008f4                __ltdf2
                0x080008f4                __ledf2
                0x080008fc                __nedf2
                0x080008fc                __eqdf2
                0x080008fc                __cmpdf2
                0x08000978                __aeabi_cdrcmple
                0x08000988                __aeabi_cdcmpeq
                0x08000988                __aeabi_cdcmple
                0x08000998                __aeabi_dcmpeq
                0x080009ac                __aeabi_dcmplt
                0x080009c0                __aeabi_dcmple
                0x080009d4                __aeabi_dcmpge
                0x080009e8                __aeabi_dcmpgt
 .text          0x080009fc       0x40 d:/progra~2/stm32c~1/gnu-to~1/bin/../lib/gcc/arm-none-eabi/9.2.1/thumb/v7-m/nofp\libgcc.a(_arm_fixunsdfsi.o)
                0x080009fc                __aeabi_d2uiz
                0x080009fc                __fixunsdfsi
 .text          0x08000a3c       0xa0 d:/progra~2/stm32c~1/gnu-to~1/bin/../lib/gcc/arm-none-eabi/9.2.1/thumb/v7-m/nofp\libgcc.a(_arm_truncdfsf2.o)
                0x08000a3c                __truncdfsf2
                0x08000a3c                __aeabi_d2f
 .text          0x08000adc      0x21c d:/progra~2/stm32c~1/gnu-to~1/bin/../lib/gcc/arm-none-eabi/9.2.1/thumb/v7-m/nofp\libgcc.a(_arm_addsubsf3.o)
                0x08000adc                __aeabi_frsub
                0x08000ae4                __subsf3
                0x08000ae4                __aeabi_fsub
                0x08000ae8                __aeabi_fadd
                0x08000ae8                __addsf3
                0x08000c48                __aeabi_ui2f
                0x08000c48                __floatunsisf
                0x08000c50                __aeabi_i2f
                0x08000c50                __floatsisf
                0x08000c6c                __aeabi_ul2f
                0x08000c6c                __floatundisf
                0x08000c7c                __aeabi_l2f
                0x08000c7c                __floatdisf
 .text          0x08000cf8      0x2a0 d:/progra~2/stm32c~1/gnu-to~1/bin/../lib/gcc/arm-none-eabi/9.2.1/thumb/v7-m/nofp\libgcc.a(_arm_muldivsf3.o)
                0x08000cf8                __mulsf3
                0x08000cf8                __aeabi_fmul
                0x08000e60                __aeabi_fdiv
                0x08000e60                __divsf3
 .text          0x08000f98       0xec d:/progra~2/stm32c~1/gnu-to~1/bin/../lib/gcc/arm-none-eabi/9.2.1/thumb/v7-m/nofp\libgcc.a(_arm_cmpsf2.o)
                0x08000f98                __gesf2
                0x08000f98                __gtsf2
                0x08000fa0                __lesf2
                0x08000fa0                __ltsf2
                0x08000fa8                __nesf2
                0x08000fa8                __eqsf2
                0x08000fa8                __cmpsf2
                0x08001008                __aeabi_cfrcmple
                0x08001010                __aeabi_cfcmpeq
                0x08001010                __aeabi_cfcmple
                0x08001020                __aeabi_fcmpeq
                0x08001034                __aeabi_fcmplt
                0x08001048                __aeabi_fcmple
                0x0800105c                __aeabi_fcmpge
                0x08001070                __aeabi_fcmpgt
 .text          0x08001084       0x4c d:/progra~2/stm32c~1/gnu-to~1/bin/../lib/gcc/arm-none-eabi/9.2.1/thumb/v7-m/nofp\libgcc.a(_arm_fixsfsi.o)
                0x08001084                __aeabi_f2iz
                0x08001084                __fixsfsi
 .text          0x080010d0       0x40 d:/progra~2/stm32c~1/gnu-to~1/bin/../lib/gcc/arm-none-eabi/9.2.1/thumb/v7-m/nofp\libgcc.a(_arm_fixunssfsi.o)
                0x080010d0                __fixunssfsi
                0x080010d0                __aeabi_f2uiz
 .text          0x08001110       0x2c d:/progra~2/stm32c~1/gnu-to~1/bin/../lib/gcc/arm-none-eabi/9.2.1/thumb/v7-m/nofp\libgcc.a(_arm_unorddf2.o)
                0x08001110                __unorddf2
                0x08001110                __aeabi_dcmpun
 .text          0x0800113c       0x50 d:/progra~2/stm32c~1/gnu-to~1/bin/../lib/gcc/arm-none-eabi/9.2.1/thumb/v7-m/nofp\libgcc.a(_arm_fixdfsi.o)
                0x0800113c                __aeabi_d2iz
                0x0800113c                __fixdfsi
 .text          0x0800118c       0x2c d:/progra~2/stm32c~1/gnu-to~1/bin/../lib/gcc/arm-none-eabi/9.2.1/thumb/v7-m/nofp\libgcc.a(_arm_unordsf2.o)
                0x0800118c                __unordsf2
                0x0800118c                __aeabi_fcmpun
 *(.text*)
 .text.inoutputs_init
                0x080011b8       0x30 CMakeFiles/GRBL_STM32F103.elf.dir/App/bsp/inoutputs.c.obj
                0x080011b8                inoutputs_init
 .text.outputs_digital_action
                0x080011e8       0x9c CMakeFiles/GRBL_STM32F103.elf.dir/App/bsp/inoutputs.c.obj
                0x080011e8                outputs_digital_action
 .text.outputs_analog_init
                0x08001284        0x4 CMakeFiles/GRBL_STM32F103.elf.dir/App/bsp/inoutputs.c.obj
                0x08001284                outputs_analog_init
 .text.outputs_analog_action
                0x08001288        0x4 CMakeFiles/GRBL_STM32F103.elf.dir/App/bsp/inoutputs.c.obj
                0x08001288                outputs_analog_action
 .text.wait_on_input_action
                0x0800128c        0x4 CMakeFiles/GRBL_STM32F103.elf.dir/App/bsp/inoutputs.c.obj
                0x0800128c                wait_on_input_action
 .text.timing_init
                0x08001290       0x38 CMakeFiles/GRBL_STM32F103.elf.dir/App/bsp/stm32utilities.c.obj
                0x08001290                timing_init
 .text.uart_init
                0x080012c8       0x50 CMakeFiles/GRBL_STM32F103.elf.dir/App/bsp/stm32utilities.c.obj
                0x080012c8                uart_init
 .text.uart_sendch
                0x08001318       0x14 CMakeFiles/GRBL_STM32F103.elf.dir/App/bsp/stm32utilities.c.obj
                0x08001318                uart_sendch
 .text.Spindle_Disable
                0x0800132c       0x34 CMakeFiles/GRBL_STM32F103.elf.dir/App/bsp/stm32utilities.c.obj
                0x0800132c                Spindle_Disable
 .text.Spindle_Enable
                0x08001360       0x30 CMakeFiles/GRBL_STM32F103.elf.dir/App/bsp/stm32utilities.c.obj
                0x08001360                Spindle_Enable
 .text.GPIO_ResetBits
                0x08001390        0x8 CMakeFiles/GRBL_STM32F103.elf.dir/App/bsp/stm32utilities.c.obj
                0x08001390                GPIO_ResetBits
 .text.GPIO_SetBits
                0x08001398        0x8 CMakeFiles/GRBL_STM32F103.elf.dir/App/bsp/stm32utilities.c.obj
                0x08001398                GPIO_SetBits
 .text.coolant_init
                0x080013a0       0x20 CMakeFiles/GRBL_STM32F103.elf.dir/App/grbl/coolant_control.c.obj
                0x080013a0                coolant_init
 .text.coolant_get_state
                0x080013c0       0x18 CMakeFiles/GRBL_STM32F103.elf.dir/App/grbl/coolant_control.c.obj
                0x080013c0                coolant_get_state
 .text.coolant_stop
                0x080013d8       0x20 CMakeFiles/GRBL_STM32F103.elf.dir/App/grbl/coolant_control.c.obj
                0x080013d8                coolant_stop
 .text.coolant_set_state
                0x080013f8       0x54 CMakeFiles/GRBL_STM32F103.elf.dir/App/grbl/coolant_control.c.obj
                0x080013f8                coolant_set_state
 .text.coolant_sync
                0x0800144c       0x5c CMakeFiles/GRBL_STM32F103.elf.dir/App/grbl/coolant_control.c.obj
                0x0800144c                coolant_sync
 .text.eeprom_flush
                0x080014a8       0x84 CMakeFiles/GRBL_STM32F103.elf.dir/App/grbl/eeprom.c.obj
                0x080014a8                eeprom_flush
 .text.eeprom_init
                0x0800152c       0x3c CMakeFiles/GRBL_STM32F103.elf.dir/App/grbl/eeprom.c.obj
                0x0800152c                eeprom_init
 .text.eeprom_get_char
                0x08001568        0xc CMakeFiles/GRBL_STM32F103.elf.dir/App/grbl/eeprom.c.obj
                0x08001568                eeprom_get_char
 .text.eeprom_put_char
                0x08001574        0xc CMakeFiles/GRBL_STM32F103.elf.dir/App/grbl/eeprom.c.obj
                0x08001574                eeprom_put_char
 .text.memcpy_to_eeprom_with_checksum
                0x08001580       0x4c CMakeFiles/GRBL_STM32F103.elf.dir/App/grbl/eeprom.c.obj
                0x08001580                memcpy_to_eeprom_with_checksum
 .text.memcpy_from_eeprom_with_checksum
                0x080015cc       0x4c CMakeFiles/GRBL_STM32F103.elf.dir/App/grbl/eeprom.c.obj
                0x080015cc                memcpy_from_eeprom_with_checksum
 .text.gc_init  0x08001618       0x2c CMakeFiles/GRBL_STM32F103.elf.dir/App/grbl/gcode.c.obj
                0x08001618                gc_init
 .text.gc_sync_position
                0x08001644       0x10 CMakeFiles/GRBL_STM32F103.elf.dir/App/grbl/gcode.c.obj
                0x08001644                gc_sync_position
 *fill*         0x08001654        0x4 
 .text.gc_execute_line
                0x08001658     0x14b4 CMakeFiles/GRBL_STM32F103.elf.dir/App/grbl/gcode.c.obj
                0x08001658                gc_execute_line
 .text.jog_execute
                0x08002b0c       0x64 CMakeFiles/GRBL_STM32F103.elf.dir/App/grbl/jog.c.obj
                0x08002b0c                jog_execute
 .text.limits_init
                0x08002b70       0x28 CMakeFiles/GRBL_STM32F103.elf.dir/App/grbl/limits.c.obj
                0x08002b70                limits_init
 .text.limits_disable
                0x08002b98       0x18 CMakeFiles/GRBL_STM32F103.elf.dir/App/grbl/limits.c.obj
                0x08002b98                limits_disable
 .text.limits_get_state
                0x08002bb0       0x4c CMakeFiles/GRBL_STM32F103.elf.dir/App/grbl/limits.c.obj
                0x08002bb0                limits_get_state
 .text.HandleLimitIT
                0x08002bfc       0x68 CMakeFiles/GRBL_STM32F103.elf.dir/App/grbl/limits.c.obj
                0x08002bfc                HandleLimitIT
 .text.limits_go_home
                0x08002c64      0x3dc CMakeFiles/GRBL_STM32F103.elf.dir/App/grbl/limits.c.obj
                0x08002c64                limits_go_home
 .text.limits_soft_check
                0x08003040       0x40 CMakeFiles/GRBL_STM32F103.elf.dir/App/grbl/limits.c.obj
                0x08003040                limits_soft_check
 .text.mc_line  0x08003080       0x68 CMakeFiles/GRBL_STM32F103.elf.dir/App/grbl/motion_control.c.obj
                0x08003080                mc_line
 .text.mc_arc   0x080030e8      0x390 CMakeFiles/GRBL_STM32F103.elf.dir/App/grbl/motion_control.c.obj
                0x080030e8                mc_arc
 .text.mc_dwell
                0x08003478       0x24 CMakeFiles/GRBL_STM32F103.elf.dir/App/grbl/motion_control.c.obj
                0x08003478                mc_dwell
 .text.mc_homing_cycle
                0x0800349c       0x5c CMakeFiles/GRBL_STM32F103.elf.dir/App/grbl/motion_control.c.obj
                0x0800349c                mc_homing_cycle
 .text.mc_probe_cycle
                0x080034f8       0xd0 CMakeFiles/GRBL_STM32F103.elf.dir/App/grbl/motion_control.c.obj
                0x080034f8                mc_probe_cycle
 .text.mc_reset
                0x080035c8       0x60 CMakeFiles/GRBL_STM32F103.elf.dir/App/grbl/motion_control.c.obj
                0x080035c8                mc_reset
 .text.read_float
                0x08003628      0x134 CMakeFiles/GRBL_STM32F103.elf.dir/App/grbl/nuts_bolts.c.obj
                0x08003628                read_float
 .text.delay_sec
                0x0800375c       0x74 CMakeFiles/GRBL_STM32F103.elf.dir/App/grbl/nuts_bolts.c.obj
                0x0800375c                delay_sec
 .text.delay_ms
                0x080037d0       0x40 CMakeFiles/GRBL_STM32F103.elf.dir/App/grbl/nuts_bolts.c.obj
                0x080037d0                delay_ms
 .text.hypot_f  0x08003810       0x24 CMakeFiles/GRBL_STM32F103.elf.dir/App/grbl/nuts_bolts.c.obj
                0x08003810                hypot_f
 .text.convert_delta_vector_to_unit_vector
                0x08003834       0x9c CMakeFiles/GRBL_STM32F103.elf.dir/App/grbl/nuts_bolts.c.obj
                0x08003834                convert_delta_vector_to_unit_vector
 .text.limit_value_by_axis_maximum
                0x080038d0       0x84 CMakeFiles/GRBL_STM32F103.elf.dir/App/grbl/nuts_bolts.c.obj
                0x080038d0                limit_value_by_axis_maximum
 .text.planner_recalculate
                0x08003954      0x1e8 CMakeFiles/GRBL_STM32F103.elf.dir/App/grbl/planner.c.obj
 .text.plan_reset
                0x08003b3c       0x40 CMakeFiles/GRBL_STM32F103.elf.dir/App/grbl/planner.c.obj
                0x08003b3c                plan_reset
 .text.plan_discard_current_block
                0x08003b7c       0x38 CMakeFiles/GRBL_STM32F103.elf.dir/App/grbl/planner.c.obj
                0x08003b7c                plan_discard_current_block
 .text.plan_get_system_motion_block
                0x08003bb4       0x18 CMakeFiles/GRBL_STM32F103.elf.dir/App/grbl/planner.c.obj
                0x08003bb4                plan_get_system_motion_block
 .text.plan_get_current_block
                0x08003bcc       0x24 CMakeFiles/GRBL_STM32F103.elf.dir/App/grbl/planner.c.obj
                0x08003bcc                plan_get_current_block
 .text.plan_get_exec_block_exit_speed_sqr
                0x08003bf0       0x34 CMakeFiles/GRBL_STM32F103.elf.dir/App/grbl/planner.c.obj
                0x08003bf0                plan_get_exec_block_exit_speed_sqr
 .text.plan_check_full_buffer
                0x08003c24       0x1c CMakeFiles/GRBL_STM32F103.elf.dir/App/grbl/planner.c.obj
                0x08003c24                plan_check_full_buffer
 .text.plan_compute_profile_nominal_speed
                0x08003c40       0xa4 CMakeFiles/GRBL_STM32F103.elf.dir/App/grbl/planner.c.obj
                0x08003c40                plan_compute_profile_nominal_speed
 *fill*         0x08003ce4        0x4 
 .text.plan_update_velocity_profile_parameters
                0x08003ce8      0x158 CMakeFiles/GRBL_STM32F103.elf.dir/App/grbl/planner.c.obj
                0x08003ce8                plan_update_velocity_profile_parameters
 .text.plan_buffer_line
                0x08003e40      0x428 CMakeFiles/GRBL_STM32F103.elf.dir/App/grbl/planner.c.obj
                0x08003e40                plan_buffer_line
 .text.plan_sync_position
                0x08004268       0x1c CMakeFiles/GRBL_STM32F103.elf.dir/App/grbl/planner.c.obj
                0x08004268                plan_sync_position
 .text.plan_get_block_buffer_available
                0x08004284       0x24 CMakeFiles/GRBL_STM32F103.elf.dir/App/grbl/planner.c.obj
                0x08004284                plan_get_block_buffer_available
 .text.plan_cycle_reinitialize
                0x080042a8       0x20 CMakeFiles/GRBL_STM32F103.elf.dir/App/grbl/planner.c.obj
                0x080042a8                plan_cycle_reinitialize
 .text.printString
                0x080042c8       0x18 CMakeFiles/GRBL_STM32F103.elf.dir/App/grbl/print.c.obj
                0x080042c8                printString
 .text.print_uint8_base10
                0x080042e0       0x7c CMakeFiles/GRBL_STM32F103.elf.dir/App/grbl/print.c.obj
                0x080042e0                print_uint8_base10
 .text.printFloat
                0x0800435c      0x1ec CMakeFiles/GRBL_STM32F103.elf.dir/App/grbl/print.c.obj
                0x0800435c                printFloat
 .text.printFloat_CoordValue
                0x08004548      0x238 CMakeFiles/GRBL_STM32F103.elf.dir/App/grbl/print.c.obj
                0x08004548                printFloat_CoordValue
 .text.printFloat_RateValue
                0x08004780      0x14c CMakeFiles/GRBL_STM32F103.elf.dir/App/grbl/print.c.obj
                0x08004780                printFloat_RateValue
 .text.probe_init
                0x080048cc       0x20 CMakeFiles/GRBL_STM32F103.elf.dir/App/grbl/probe.c.obj
                0x080048cc                probe_init
 .text.probe_configure_invert_mask
                0x080048ec       0x28 CMakeFiles/GRBL_STM32F103.elf.dir/App/grbl/probe.c.obj
                0x080048ec                probe_configure_invert_mask
 .text.probe_get_state
                0x08004914       0x20 CMakeFiles/GRBL_STM32F103.elf.dir/App/grbl/probe.c.obj
                0x08004914                probe_get_state
 .text.probe_state_monitor
                0x08004934       0x4c CMakeFiles/GRBL_STM32F103.elf.dir/App/grbl/probe.c.obj
                0x08004934                probe_state_monitor
 .text.protocol_auto_cycle_start
                0x08004980       0x14 CMakeFiles/GRBL_STM32F103.elf.dir/App/grbl/protocol.c.obj
                0x08004980                protocol_auto_cycle_start
 .text.protocol_exec_rt_system
                0x08004994      0x3c8 CMakeFiles/GRBL_STM32F103.elf.dir/App/grbl/protocol.c.obj
                0x08004994                protocol_exec_rt_system
 .text.protocol_exec_rt_suspend
                0x08004d5c      0x258 CMakeFiles/GRBL_STM32F103.elf.dir/App/grbl/protocol.c.obj
 .text.protocol_execute_realtime
                0x08004fb4       0x1c CMakeFiles/GRBL_STM32F103.elf.dir/App/grbl/protocol.c.obj
                0x08004fb4                protocol_execute_realtime
 .text.protocol_main_loop
                0x08004fd0      0x160 CMakeFiles/GRBL_STM32F103.elf.dir/App/grbl/protocol.c.obj
                0x08004fd0                protocol_main_loop
 .text.protocol_buffer_synchronize
                0x08005130       0x38 CMakeFiles/GRBL_STM32F103.elf.dir/App/grbl/protocol.c.obj
                0x08005130                protocol_buffer_synchronize
 .text.report_status_message
                0x08005168       0x30 CMakeFiles/GRBL_STM32F103.elf.dir/App/grbl/report.c.obj
                0x08005168                report_status_message
 .text.report_alarm_message
                0x08005198       0x2c CMakeFiles/GRBL_STM32F103.elf.dir/App/grbl/report.c.obj
                0x08005198                report_alarm_message
 .text.report_feedback_message
                0x080051c4       0xbc CMakeFiles/GRBL_STM32F103.elf.dir/App/grbl/report.c.obj
                0x080051c4                report_feedback_message
 .text.report_init_message
                0x08005280        0xc CMakeFiles/GRBL_STM32F103.elf.dir/App/grbl/report.c.obj
                0x08005280                report_init_message
 .text.report_grbl_help
                0x0800528c        0xc CMakeFiles/GRBL_STM32F103.elf.dir/App/grbl/report.c.obj
                0x0800528c                report_grbl_help
 .text.report_grbl_settings
                0x08005298      0x43c CMakeFiles/GRBL_STM32F103.elf.dir/App/grbl/report.c.obj
                0x08005298                report_grbl_settings
 .text.report_probe_parameters
                0x080056d4       0x60 CMakeFiles/GRBL_STM32F103.elf.dir/App/grbl/report.c.obj
                0x080056d4                report_probe_parameters
 .text.report_ngc_parameters
                0x08005734      0x194 CMakeFiles/GRBL_STM32F103.elf.dir/App/grbl/report.c.obj
                0x08005734                report_ngc_parameters
 .text.report_gcode_modes
                0x080058c8      0x170 CMakeFiles/GRBL_STM32F103.elf.dir/App/grbl/report.c.obj
                0x080058c8                report_gcode_modes
 .text.report_startup_line
                0x08005a38       0x30 CMakeFiles/GRBL_STM32F103.elf.dir/App/grbl/report.c.obj
                0x08005a38                report_startup_line
 .text.report_execute_startup_message
                0x08005a68       0x48 CMakeFiles/GRBL_STM32F103.elf.dir/App/grbl/report.c.obj
                0x08005a68                report_execute_startup_message
 .text.report_build_info
                0x08005ab0       0x6c CMakeFiles/GRBL_STM32F103.elf.dir/App/grbl/report.c.obj
                0x08005ab0                report_build_info
 .text.report_realtime_status
                0x08005b1c      0x3cc CMakeFiles/GRBL_STM32F103.elf.dir/App/grbl/report.c.obj
                0x08005b1c                report_realtime_status
 .text.serial_get_rx_buffer_available
                0x08005ee8       0x24 CMakeFiles/GRBL_STM32F103.elf.dir/App/grbl/serial.c.obj
                0x08005ee8                serial_get_rx_buffer_available
 .text.serial_init
                0x08005f0c        0x4 CMakeFiles/GRBL_STM32F103.elf.dir/App/grbl/serial.c.obj
                0x08005f0c                serial_init
 .text.serial_write
                0x08005f10        0x4 CMakeFiles/GRBL_STM32F103.elf.dir/App/grbl/serial.c.obj
                0x08005f10                serial_write
 .text.serial_read
                0x08005f14       0x30 CMakeFiles/GRBL_STM32F103.elf.dir/App/grbl/serial.c.obj
                0x08005f14                serial_read
 .text.serial_reset_read_buffer
                0x08005f44       0x14 CMakeFiles/GRBL_STM32F103.elf.dir/App/grbl/serial.c.obj
                0x08005f44                serial_reset_read_buffer
 .text.settings_store_startup_line
                0x08005f58       0x24 CMakeFiles/GRBL_STM32F103.elf.dir/App/grbl/settings.c.obj
                0x08005f58                settings_store_startup_line
 .text.settings_store_build_info
                0x08005f7c        0xc CMakeFiles/GRBL_STM32F103.elf.dir/App/grbl/settings.c.obj
                0x08005f7c                settings_store_build_info
 .text.settings_write_coord_data
                0x08005f88       0x24 CMakeFiles/GRBL_STM32F103.elf.dir/App/grbl/settings.c.obj
                0x08005f88                settings_write_coord_data
 .text.settings_restore
                0x08005fac      0x128 CMakeFiles/GRBL_STM32F103.elf.dir/App/grbl/settings.c.obj
                0x08005fac                settings_restore
 .text.settings_read_startup_line
                0x080060d4       0x38 CMakeFiles/GRBL_STM32F103.elf.dir/App/grbl/settings.c.obj
                0x080060d4                settings_read_startup_line
 .text.settings_read_build_info
                0x0800610c       0x28 CMakeFiles/GRBL_STM32F103.elf.dir/App/grbl/settings.c.obj
                0x0800610c                settings_read_build_info
 .text.settings_read_coord_data
                0x08006134       0x3c CMakeFiles/GRBL_STM32F103.elf.dir/App/grbl/settings.c.obj
                0x08006134                settings_read_coord_data
 .text.settings_store_global_setting
                0x08006170      0x32c CMakeFiles/GRBL_STM32F103.elf.dir/App/grbl/settings.c.obj
                0x08006170                settings_store_global_setting
 .text.acceleration_scaling
                0x0800649c       0x80 CMakeFiles/GRBL_STM32F103.elf.dir/App/grbl/settings.c.obj
                0x0800649c                acceleration_scaling
 .text.settings_init
                0x0800651c       0x50 CMakeFiles/GRBL_STM32F103.elf.dir/App/grbl/settings.c.obj
                0x0800651c                settings_init
 .text.spindle_init
                0x0800656c       0x4c CMakeFiles/GRBL_STM32F103.elf.dir/App/grbl/spindle_control.c.obj
                0x0800656c                spindle_init
 .text.spindle_get_state
                0x080065b8        0xc CMakeFiles/GRBL_STM32F103.elf.dir/App/grbl/spindle_control.c.obj
                0x080065b8                spindle_get_state
 .text.spindle_stop
                0x080065c4        0x4 CMakeFiles/GRBL_STM32F103.elf.dir/App/grbl/spindle_control.c.obj
                0x080065c4                spindle_stop
 .text.spindle_set_speed
                0x080065c8       0x14 CMakeFiles/GRBL_STM32F103.elf.dir/App/grbl/spindle_control.c.obj
                0x080065c8                spindle_set_speed
 *fill*         0x080065dc        0x4 
 .text.spindle_compute_pwm_value
                0x080065e0       0xbc CMakeFiles/GRBL_STM32F103.elf.dir/App/grbl/spindle_control.c.obj
                0x080065e0                spindle_compute_pwm_value
 *fill*         0x0800669c        0x4 
 .text.spindle_set_state
                0x080066a0      0x12c CMakeFiles/GRBL_STM32F103.elf.dir/App/grbl/spindle_control.c.obj
                0x080066a0                spindle_set_state
 *fill*         0x080067cc        0x4 
 .text.spindle_sync
                0x080067d0      0x13c CMakeFiles/GRBL_STM32F103.elf.dir/App/grbl/spindle_control.c.obj
                0x080067d0                spindle_sync
 .text.st_wake_up
                0x0800690c       0x88 CMakeFiles/GRBL_STM32F103.elf.dir/App/grbl/stepper.c.obj
                0x0800690c                st_wake_up
 .text.st_go_idle
                0x08006994       0x84 CMakeFiles/GRBL_STM32F103.elf.dir/App/grbl/stepper.c.obj
                0x08006994                st_go_idle
 .text.HandleStepSetIT
                0x08006a18      0x204 CMakeFiles/GRBL_STM32F103.elf.dir/App/grbl/stepper.c.obj
                0x08006a18                HandleStepSetIT
 .text.HandleStepResetIT
                0x08006c1c       0x20 CMakeFiles/GRBL_STM32F103.elf.dir/App/grbl/stepper.c.obj
                0x08006c1c                HandleStepResetIT
 .text.st_generate_step_dir_invert_masks
                0x08006c3c       0xa8 CMakeFiles/GRBL_STM32F103.elf.dir/App/grbl/stepper.c.obj
                0x08006c3c                st_generate_step_dir_invert_masks
 .text.st_reset
                0x08006ce4      0x120 CMakeFiles/GRBL_STM32F103.elf.dir/App/grbl/stepper.c.obj
                0x08006ce4                st_reset
 .text.stepper_init
                0x08006e04       0x58 CMakeFiles/GRBL_STM32F103.elf.dir/App/grbl/stepper.c.obj
                0x08006e04                stepper_init
 .text.st_update_plan_block_parameters
                0x08006e5c       0x2c CMakeFiles/GRBL_STM32F103.elf.dir/App/grbl/stepper.c.obj
                0x08006e5c                st_update_plan_block_parameters
 .text.st_prep_buffer
                0x08006e88      0x9ac CMakeFiles/GRBL_STM32F103.elf.dir/App/grbl/stepper.c.obj
                0x08006e88                st_prep_buffer
 .text.st_get_realtime_rate
                0x08007834       0x1c CMakeFiles/GRBL_STM32F103.elf.dir/App/grbl/stepper.c.obj
                0x08007834                st_get_realtime_rate
 .text.system_init
                0x08007850        0x4 CMakeFiles/GRBL_STM32F103.elf.dir/App/grbl/system.c.obj
                0x08007850                system_init
 .text.system_control_get_state
                0x08007854       0x30 CMakeFiles/GRBL_STM32F103.elf.dir/App/grbl/system.c.obj
                0x08007854                system_control_get_state
 .text.HandleControlIT
                0x08007884       0x98 CMakeFiles/GRBL_STM32F103.elf.dir/App/grbl/system.c.obj
                0x08007884                HandleControlIT
 .text.system_check_safety_door_ajar
                0x0800791c       0x2c CMakeFiles/GRBL_STM32F103.elf.dir/App/grbl/system.c.obj
                0x0800791c                system_check_safety_door_ajar
 .text.system_execute_startup
                0x08007948       0x44 CMakeFiles/GRBL_STM32F103.elf.dir/App/grbl/system.c.obj
                0x08007948                system_execute_startup
 .text.system_execute_line
                0x0800798c      0x3f4 CMakeFiles/GRBL_STM32F103.elf.dir/App/grbl/system.c.obj
                0x0800798c                system_execute_line
 .text.system_flag_wco_change
                0x08007d80       0x14 CMakeFiles/GRBL_STM32F103.elf.dir/App/grbl/system.c.obj
                0x08007d80                system_flag_wco_change
 .text.system_convert_array_steps_to_mpos
                0x08007d94       0x3c CMakeFiles/GRBL_STM32F103.elf.dir/App/grbl/system.c.obj
                0x08007d94                system_convert_array_steps_to_mpos
 .text.system_check_travel_limits
                0x08007dd0       0x58 CMakeFiles/GRBL_STM32F103.elf.dir/App/grbl/system.c.obj
                0x08007dd0                system_check_travel_limits
 .text.system_set_exec_state_flag
                0x08007e28       0x14 CMakeFiles/GRBL_STM32F103.elf.dir/App/grbl/system.c.obj
                0x08007e28                system_set_exec_state_flag
 .text.system_clear_exec_state_flag
                0x08007e3c       0x14 CMakeFiles/GRBL_STM32F103.elf.dir/App/grbl/system.c.obj
                0x08007e3c                system_clear_exec_state_flag
 .text.system_set_exec_alarm
                0x08007e50       0x14 CMakeFiles/GRBL_STM32F103.elf.dir/App/grbl/system.c.obj
                0x08007e50                system_set_exec_alarm
 .text.system_clear_exec_alarm
                0x08007e64       0x10 CMakeFiles/GRBL_STM32F103.elf.dir/App/grbl/system.c.obj
                0x08007e64                system_clear_exec_alarm
 .text.system_set_exec_accessory_override_flag
                0x08007e74       0x14 CMakeFiles/GRBL_STM32F103.elf.dir/App/grbl/system.c.obj
                0x08007e74                system_set_exec_accessory_override_flag
 .text.system_clear_exec_motion_overrides
                0x08007e88       0x10 CMakeFiles/GRBL_STM32F103.elf.dir/App/grbl/system.c.obj
                0x08007e88                system_clear_exec_motion_overrides
 .text.system_clear_exec_accessory_overrides
                0x08007e98       0x10 CMakeFiles/GRBL_STM32F103.elf.dir/App/grbl/system.c.obj
                0x08007e98                system_clear_exec_accessory_overrides
 .text.HAL_InitTick
                0x08007ea8       0x48 CMakeFiles/GRBL_STM32F103.elf.dir/Drivers/STM32F1xx_HAL_Driver/Src/stm32f1xx_hal.c.obj
                0x08007ea8                HAL_InitTick
 .text.HAL_Init
                0x08007ef0       0x24 CMakeFiles/GRBL_STM32F103.elf.dir/Drivers/STM32F1xx_HAL_Driver/Src/stm32f1xx_hal.c.obj
                0x08007ef0                HAL_Init
 .text.HAL_IncTick
                0x08007f14       0x18 CMakeFiles/GRBL_STM32F103.elf.dir/Drivers/STM32F1xx_HAL_Driver/Src/stm32f1xx_hal.c.obj
                0x08007f14                HAL_IncTick
 .text.HAL_GetTick
                0x08007f2c        0xc CMakeFiles/GRBL_STM32F103.elf.dir/Drivers/STM32F1xx_HAL_Driver/Src/stm32f1xx_hal.c.obj
                0x08007f2c                HAL_GetTick
 .text.HAL_Delay
                0x08007f38       0x24 CMakeFiles/GRBL_STM32F103.elf.dir/Drivers/STM32F1xx_HAL_Driver/Src/stm32f1xx_hal.c.obj
                0x08007f38                HAL_Delay
 .text.HAL_NVIC_SetPriorityGrouping
                0x08007f5c       0x24 CMakeFiles/GRBL_STM32F103.elf.dir/Drivers/STM32F1xx_HAL_Driver/Src/stm32f1xx_hal_cortex.c.obj
                0x08007f5c                HAL_NVIC_SetPriorityGrouping
 .text.HAL_NVIC_SetPriority
                0x08007f80       0x70 CMakeFiles/GRBL_STM32F103.elf.dir/Drivers/STM32F1xx_HAL_Driver/Src/stm32f1xx_hal_cortex.c.obj
                0x08007f80                HAL_NVIC_SetPriority
 .text.HAL_NVIC_EnableIRQ
                0x08007ff0       0x1c CMakeFiles/GRBL_STM32F103.elf.dir/Drivers/STM32F1xx_HAL_Driver/Src/stm32f1xx_hal_cortex.c.obj
                0x08007ff0                HAL_NVIC_EnableIRQ
 .text.HAL_SYSTICK_Config
                0x0800800c       0x30 CMakeFiles/GRBL_STM32F103.elf.dir/Drivers/STM32F1xx_HAL_Driver/Src/stm32f1xx_hal_cortex.c.obj
                0x0800800c                HAL_SYSTICK_Config
 .text.HAL_NVIC_ClearPendingIRQ
                0x0800803c       0x1c CMakeFiles/GRBL_STM32F103.elf.dir/Drivers/STM32F1xx_HAL_Driver/Src/stm32f1xx_hal_cortex.c.obj
                0x0800803c                HAL_NVIC_ClearPendingIRQ
 .text.HAL_FLASH_Program
                0x08008058      0x1bc CMakeFiles/GRBL_STM32F103.elf.dir/Drivers/STM32F1xx_HAL_Driver/Src/stm32f1xx_hal_flash.c.obj
                0x08008058                HAL_FLASH_Program
 .text.HAL_FLASH_Unlock
                0x08008214       0x28 CMakeFiles/GRBL_STM32F103.elf.dir/Drivers/STM32F1xx_HAL_Driver/Src/stm32f1xx_hal_flash.c.obj
                0x08008214                HAL_FLASH_Unlock
 .text.HAL_FLASH_Lock
                0x0800823c       0x14 CMakeFiles/GRBL_STM32F103.elf.dir/Drivers/STM32F1xx_HAL_Driver/Src/stm32f1xx_hal_flash.c.obj
                0x0800823c                HAL_FLASH_Lock
 .text.FLASH_WaitForLastOperation
                0x08008250       0xac CMakeFiles/GRBL_STM32F103.elf.dir/Drivers/STM32F1xx_HAL_Driver/Src/stm32f1xx_hal_flash.c.obj
                0x08008250                FLASH_WaitForLastOperation
 .text.FLASH_PageErase
                0x080082fc       0x24 CMakeFiles/GRBL_STM32F103.elf.dir/Drivers/STM32F1xx_HAL_Driver/Src/stm32f1xx_hal_flash_ex.c.obj
                0x080082fc                FLASH_PageErase
 .text.HAL_GPIO_Init
                0x08008320      0x218 CMakeFiles/GRBL_STM32F103.elf.dir/Drivers/STM32F1xx_HAL_Driver/Src/stm32f1xx_hal_gpio.c.obj
                0x08008320                HAL_GPIO_Init
 .text.HAL_GPIO_WritePin
                0x08008538        0x8 CMakeFiles/GRBL_STM32F103.elf.dir/Drivers/STM32F1xx_HAL_Driver/Src/stm32f1xx_hal_gpio.c.obj
                0x08008538                HAL_GPIO_WritePin
 .text.HAL_GPIO_EXTI_Callback
                0x08008540        0x4 CMakeFiles/GRBL_STM32F103.elf.dir/Drivers/STM32F1xx_HAL_Driver/Src/stm32f1xx_hal_gpio.c.obj
                0x08008540                HAL_GPIO_EXTI_Callback
 .text.HAL_GPIO_EXTI_IRQHandler
                0x08008544       0x18 CMakeFiles/GRBL_STM32F103.elf.dir/Drivers/STM32F1xx_HAL_Driver/Src/stm32f1xx_hal_gpio.c.obj
                0x08008544                HAL_GPIO_EXTI_IRQHandler
 .text.HAL_RCC_OscConfig
                0x0800855c      0x400 CMakeFiles/GRBL_STM32F103.elf.dir/Drivers/STM32F1xx_HAL_Driver/Src/stm32f1xx_hal_rcc.c.obj
                0x0800855c                HAL_RCC_OscConfig
 .text.HAL_RCC_ClockConfig
                0x0800895c      0x19c CMakeFiles/GRBL_STM32F103.elf.dir/Drivers/STM32F1xx_HAL_Driver/Src/stm32f1xx_hal_rcc.c.obj
                0x0800895c                HAL_RCC_ClockConfig
 .text.HAL_TIM_Encoder_Init
                0x08008af8      0x110 CMakeFiles/GRBL_STM32F103.elf.dir/Drivers/STM32F1xx_HAL_Driver/Src/stm32f1xx_hal_tim.c.obj
                0x08008af8                HAL_TIM_Encoder_Init
 .text.HAL_TIM_Encoder_Start
                0x08008c08       0x4c CMakeFiles/GRBL_STM32F103.elf.dir/Drivers/STM32F1xx_HAL_Driver/Src/stm32f1xx_hal_tim.c.obj
                0x08008c08                HAL_TIM_Encoder_Start
 .text.HAL_TIMEx_MasterConfigSynchronization
                0x08008c54       0x44 CMakeFiles/GRBL_STM32F103.elf.dir/Drivers/STM32F1xx_HAL_Driver/Src/stm32f1xx_hal_tim_ex.c.obj
                0x08008c54                HAL_TIMEx_MasterConfigSynchronization
 .text.LL_GPIO_Init
                0x08008c98      0x10c CMakeFiles/GRBL_STM32F103.elf.dir/Drivers/STM32F1xx_HAL_Driver/Src/stm32f1xx_ll_gpio.c.obj
                0x08008c98                LL_GPIO_Init
 .text.LL_RCC_GetSystemClocksFreq
                0x08008da4       0x80 CMakeFiles/GRBL_STM32F103.elf.dir/Drivers/STM32F1xx_HAL_Driver/Src/stm32f1xx_ll_rcc.c.obj
                0x08008da4                LL_RCC_GetSystemClocksFreq
 .text.LL_TIM_Init
                0x08008e24       0x84 CMakeFiles/GRBL_STM32F103.elf.dir/Drivers/STM32F1xx_HAL_Driver/Src/stm32f1xx_ll_tim.c.obj
                0x08008e24                LL_TIM_Init
 .text.LL_TIM_OC_Init
                0x08008ea8      0x1b4 CMakeFiles/GRBL_STM32F103.elf.dir/Drivers/STM32F1xx_HAL_Driver/Src/stm32f1xx_ll_tim.c.obj
                0x08008ea8                LL_TIM_OC_Init
 .text.LL_TIM_BDTR_Init
                0x0800905c       0x38 CMakeFiles/GRBL_STM32F103.elf.dir/Drivers/STM32F1xx_HAL_Driver/Src/stm32f1xx_ll_tim.c.obj
                0x0800905c                LL_TIM_BDTR_Init
 .text.LL_USART_Init
                0x08009094       0xb4 CMakeFiles/GRBL_STM32F103.elf.dir/Drivers/STM32F1xx_HAL_Driver/Src/stm32f1xx_ll_usart.c.obj
                0x08009094                LL_USART_Init
 .text.MX_GPIO_Init
                0x08009148      0x14c CMakeFiles/GRBL_STM32F103.elf.dir/Src/gpio.c.obj
                0x08009148                MX_GPIO_Init
 .text.SystemClock_Config
                0x08009294       0x5c CMakeFiles/GRBL_STM32F103.elf.dir/Src/main.c.obj
                0x08009294                SystemClock_Config
 .text.startup.main
                0x080092f0      0x14c CMakeFiles/GRBL_STM32F103.elf.dir/Src/main.c.obj
                0x080092f0                main
 .text.Error_Handler
                0x0800943c        0x4 CMakeFiles/GRBL_STM32F103.elf.dir/Src/main.c.obj
                0x0800943c                Error_Handler
 .text.HAL_MspInit
                0x08009440       0x44 CMakeFiles/GRBL_STM32F103.elf.dir/Src/stm32f1xx_hal_msp.c.obj
                0x08009440                HAL_MspInit
 .text.NMI_Handler
                0x08009484        0x4 CMakeFiles/GRBL_STM32F103.elf.dir/Src/stm32f1xx_it.c.obj
                0x08009484                NMI_Handler
 .text.HardFault_Handler
                0x08009488        0x4 CMakeFiles/GRBL_STM32F103.elf.dir/Src/stm32f1xx_it.c.obj
                0x08009488                HardFault_Handler
 .text.MemManage_Handler
                0x0800948c        0x4 CMakeFiles/GRBL_STM32F103.elf.dir/Src/stm32f1xx_it.c.obj
                0x0800948c                MemManage_Handler
 .text.BusFault_Handler
                0x08009490        0x4 CMakeFiles/GRBL_STM32F103.elf.dir/Src/stm32f1xx_it.c.obj
                0x08009490                BusFault_Handler
 .text.UsageFault_Handler
                0x08009494        0x4 CMakeFiles/GRBL_STM32F103.elf.dir/Src/stm32f1xx_it.c.obj
                0x08009494                UsageFault_Handler
 .text.SVC_Handler
                0x08009498        0x4 CMakeFiles/GRBL_STM32F103.elf.dir/Src/stm32f1xx_it.c.obj
                0x08009498                SVC_Handler
 .text.DebugMon_Handler
                0x0800949c        0x4 CMakeFiles/GRBL_STM32F103.elf.dir/Src/stm32f1xx_it.c.obj
                0x0800949c                DebugMon_Handler
 .text.PendSV_Handler
                0x080094a0        0x4 CMakeFiles/GRBL_STM32F103.elf.dir/Src/stm32f1xx_it.c.obj
                0x080094a0                PendSV_Handler
 .text.SysTick_Handler
                0x080094a4        0x4 CMakeFiles/GRBL_STM32F103.elf.dir/Src/stm32f1xx_it.c.obj
                0x080094a4                SysTick_Handler
 .text.EXTI0_IRQHandler
                0x080094a8       0x1c CMakeFiles/GRBL_STM32F103.elf.dir/Src/stm32f1xx_it.c.obj
                0x080094a8                EXTI0_IRQHandler
 .text.EXTI1_IRQHandler
                0x080094c4       0x1c CMakeFiles/GRBL_STM32F103.elf.dir/Src/stm32f1xx_it.c.obj
                0x080094c4                EXTI1_IRQHandler
 .text.EXTI3_IRQHandler
                0x080094e0       0x20 CMakeFiles/GRBL_STM32F103.elf.dir/Src/stm32f1xx_it.c.obj
                0x080094e0                EXTI3_IRQHandler
 .text.EXTI4_IRQHandler
                0x08009500       0x20 CMakeFiles/GRBL_STM32F103.elf.dir/Src/stm32f1xx_it.c.obj
                0x08009500                EXTI4_IRQHandler
 .text.TIM2_IRQHandler
                0x08009520       0x1c CMakeFiles/GRBL_STM32F103.elf.dir/Src/stm32f1xx_it.c.obj
                0x08009520                TIM2_IRQHandler
 .text.TIM3_IRQHandler
                0x0800953c       0x38 CMakeFiles/GRBL_STM32F103.elf.dir/Src/stm32f1xx_it.c.obj
                0x0800953c                TIM3_IRQHandler
 .text.USART1_IRQHandler
                0x08009574        0x4 CMakeFiles/GRBL_STM32F103.elf.dir/Src/stm32f1xx_it.c.obj
                0x08009574                USART1_IRQHandler
 .text.EXTI15_10_IRQHandler
                0x08009578       0x30 CMakeFiles/GRBL_STM32F103.elf.dir/Src/stm32f1xx_it.c.obj
                0x08009578                EXTI15_10_IRQHandler
 .text._sbrk    0x080095a8       0x3c CMakeFiles/GRBL_STM32F103.elf.dir/Src/syscalls.c.obj
                0x080095a8                _sbrk
 .text.SystemInit
                0x080095e4       0x50 CMakeFiles/GRBL_STM32F103.elf.dir/Src/system_stm32f1xx.c.obj
                0x080095e4                SystemInit
 .text.MX_TIM1_Init
                0x08009634      0x118 CMakeFiles/GRBL_STM32F103.elf.dir/Src/tim.c.obj
                0x08009634                MX_TIM1_Init
 .text.MX_TIM2_Init
                0x0800974c       0x80 CMakeFiles/GRBL_STM32F103.elf.dir/Src/tim.c.obj
                0x0800974c                MX_TIM2_Init
 .text.MX_TIM3_Init
                0x080097cc       0x80 CMakeFiles/GRBL_STM32F103.elf.dir/Src/tim.c.obj
                0x080097cc                MX_TIM3_Init
 .text.MX_TIM4_Init
                0x0800984c       0x7c CMakeFiles/GRBL_STM32F103.elf.dir/Src/tim.c.obj
                0x0800984c                MX_TIM4_Init
 .text.HAL_TIM_Encoder_MspInit
                0x080098c8       0x60 CMakeFiles/GRBL_STM32F103.elf.dir/Src/tim.c.obj
                0x080098c8                HAL_TIM_Encoder_MspInit
 .text.MX_USART1_UART_Init
                0x08009928       0xdc CMakeFiles/GRBL_STM32F103.elf.dir/Src/usart.c.obj
                0x08009928                MX_USART1_UART_Init
 .text.Reset_Handler
                0x08009a04       0x48 CMakeFiles/GRBL_STM32F103.elf.dir/startup/startup_stm32f103xb.s.obj
                0x08009a04                Reset_Handler
 .text.Default_Handler
                0x08009a4c        0x2 CMakeFiles/GRBL_STM32F103.elf.dir/startup/startup_stm32f103xb.s.obj
                0x08009a4c                RTC_Alarm_IRQHandler
                0x08009a4c                EXTI2_IRQHandler
                0x08009a4c                TIM1_CC_IRQHandler
                0x08009a4c                PVD_IRQHandler
                0x08009a4c                I2C2_EV_IRQHandler
                0x08009a4c                ADC1_2_IRQHandler
                0x08009a4c                SPI1_IRQHandler
                0x08009a4c                TAMPER_IRQHandler
                0x08009a4c                DMA1_Channel4_IRQHandler
                0x08009a4c                USART3_IRQHandler
                0x08009a4c                RTC_IRQHandler
                0x08009a4c                DMA1_Channel7_IRQHandler
                0x08009a4c                CAN1_RX1_IRQHandler
                0x08009a4c                TIM4_IRQHandler
                0x08009a4c                I2C1_EV_IRQHandler
                0x08009a4c                DMA1_Channel6_IRQHandler
                0x08009a4c                RCC_IRQHandler
                0x08009a4c                TIM1_TRG_COM_IRQHandler
                0x08009a4c                DMA1_Channel1_IRQHandler
                0x08009a4c                Default_Handler
                0x08009a4c                EXTI9_5_IRQHandler
                0x08009a4c                SPI2_IRQHandler
                0x08009a4c                DMA1_Channel5_IRQHandler
                0x08009a4c                USB_LP_CAN1_RX0_IRQHandler
                0x08009a4c                USB_HP_CAN1_TX_IRQHandler
                0x08009a4c                DMA1_Channel3_IRQHandler
                0x08009a4c                TIM1_UP_IRQHandler
                0x08009a4c                WWDG_IRQHandler
                0x08009a4c                TIM1_BRK_IRQHandler
                0x08009a4c                USART2_IRQHandler
                0x08009a4c                I2C2_ER_IRQHandler
                0x08009a4c                DMA1_Channel2_IRQHandler
                0x08009a4c                CAN1_SCE_IRQHandler
                0x08009a4c                FLASH_IRQHandler
                0x08009a4c                I2C1_ER_IRQHandler
                0x08009a4c                USBWakeUp_IRQHandler
 *fill*         0x08009a4e        0x2 
 .text.__errno  0x08009a50        0xc d:/progra~2/stm32c~1/gnu-to~1/bin/../lib/gcc/arm-none-eabi/9.2.1/../../../../arm-none-eabi/lib/thumb/v7-m/nofp\libg_nano.a(lib_a-errno.o)
                0x08009a50                __errno
 .text.__libc_init_array
                0x08009a5c       0x48 d:/progra~2/stm32c~1/gnu-to~1/bin/../lib/gcc/arm-none-eabi/9.2.1/../../../../arm-none-eabi/lib/thumb/v7-m/nofp\libg_nano.a(lib_a-init.o)
                0x08009a5c                __libc_init_array
 .text.memcmp   0x08009aa4       0x1c d:/progra~2/stm32c~1/gnu-to~1/bin/../lib/gcc/arm-none-eabi/9.2.1/../../../../arm-none-eabi/lib/thumb/v7-m/nofp\libg_nano.a(lib_a-memcmp.o)
                0x08009aa4                memcmp
 .text.memset   0x08009ac0       0x10 d:/progra~2/stm32c~1/gnu-to~1/bin/../lib/gcc/arm-none-eabi/9.2.1/../../../../arm-none-eabi/lib/thumb/v7-m/nofp\libg_nano.a(lib_a-memset.o)
                0x08009ac0                memset
 .text.sprintf  0x08009ad0       0x40 d:/progra~2/stm32c~1/gnu-to~1/bin/../lib/gcc/arm-none-eabi/9.2.1/../../../../arm-none-eabi/lib/thumb/v7-m/nofp\libg_nano.a(lib_a-sprintf.o)
                0x08009ad0                siprintf
                0x08009ad0                sprintf
 .text.__ssputs_r
                0x08009b10       0xb6 d:/progra~2/stm32c~1/gnu-to~1/bin/../lib/gcc/arm-none-eabi/9.2.1/../../../../arm-none-eabi/lib/thumb/v7-m/nofp\libg_nano.a(lib_a-nano-svfprintf.o)
                0x08009b10                __ssputs_r
 *fill*         0x08009bc6        0x2 
 .text._svfprintf_r
                0x08009bc8      0x200 d:/progra~2/stm32c~1/gnu-to~1/bin/../lib/gcc/arm-none-eabi/9.2.1/../../../../arm-none-eabi/lib/thumb/v7-m/nofp\libg_nano.a(lib_a-nano-svfprintf.o)
                0x08009bc8                _svfiprintf_r
                0x08009bc8                _svfprintf_r
 .text._printf_common
                0x08009dc8       0xde d:/progra~2/stm32c~1/gnu-to~1/bin/../lib/gcc/arm-none-eabi/9.2.1/../../../../arm-none-eabi/lib/thumb/v7-m/nofp\libg_nano.a(lib_a-nano-vfprintf_i.o)
                0x08009dc8                _printf_common
 *fill*         0x08009ea6        0x2 
 .text._printf_i
                0x08009ea8      0x24c d:/progra~2/stm32c~1/gnu-to~1/bin/../lib/gcc/arm-none-eabi/9.2.1/../../../../arm-none-eabi/lib/thumb/v7-m/nofp\libg_nano.a(lib_a-nano-vfprintf_i.o)
                0x08009ea8                _printf_i
 .text.memchr   0x0800a0f4       0x1c d:/progra~2/stm32c~1/gnu-to~1/bin/../lib/gcc/arm-none-eabi/9.2.1/../../../../arm-none-eabi/lib/thumb/v7-m/nofp\libg_nano.a(lib_a-memchr-stub.o)
                0x0800a0f4                memchr
 .text.memcpy   0x0800a110       0x1c d:/progra~2/stm32c~1/gnu-to~1/bin/../lib/gcc/arm-none-eabi/9.2.1/../../../../arm-none-eabi/lib/thumb/v7-m/nofp\libg_nano.a(lib_a-memcpy-stub.o)
                0x0800a110                memcpy
 .text.memmove  0x0800a12c       0x34 d:/progra~2/stm32c~1/gnu-to~1/bin/../lib/gcc/arm-none-eabi/9.2.1/../../../../arm-none-eabi/lib/thumb/v7-m/nofp\libg_nano.a(lib_a-memmove.o)
                0x0800a12c                memmove
 .text._free_r  0x0800a160       0x98 d:/progra~2/stm32c~1/gnu-to~1/bin/../lib/gcc/arm-none-eabi/9.2.1/../../../../arm-none-eabi/lib/thumb/v7-m/nofp\libg_nano.a(lib_a-nano-freer.o)
                0x0800a160                _free_r
 .text._malloc_r
                0x0800a1f8       0xb4 d:/progra~2/stm32c~1/gnu-to~1/bin/../lib/gcc/arm-none-eabi/9.2.1/../../../../arm-none-eabi/lib/thumb/v7-m/nofp\libg_nano.a(lib_a-nano-mallocr.o)
                0x0800a1f8                _malloc_r
 .text._realloc_r
                0x0800a2ac       0x4c d:/progra~2/stm32c~1/gnu-to~1/bin/../lib/gcc/arm-none-eabi/9.2.1/../../../../arm-none-eabi/lib/thumb/v7-m/nofp\libg_nano.a(lib_a-nano-reallocr.o)
                0x0800a2ac                _realloc_r
 .text._sbrk_r  0x0800a2f8       0x20 d:/progra~2/stm32c~1/gnu-to~1/bin/../lib/gcc/arm-none-eabi/9.2.1/../../../../arm-none-eabi/lib/thumb/v7-m/nofp\libg_nano.a(lib_a-sbrkr.o)
                0x0800a2f8                _sbrk_r
 .text.__malloc_lock
                0x0800a318        0xc d:/progra~2/stm32c~1/gnu-to~1/bin/../lib/gcc/arm-none-eabi/9.2.1/../../../../arm-none-eabi/lib/thumb/v7-m/nofp\libg_nano.a(lib_a-mlock.o)
                0x0800a318                __malloc_lock
 .text.__malloc_unlock
                0x0800a324        0xc d:/progra~2/stm32c~1/gnu-to~1/bin/../lib/gcc/arm-none-eabi/9.2.1/../../../../arm-none-eabi/lib/thumb/v7-m/nofp\libg_nano.a(lib_a-mlock.o)
                0x0800a324                __malloc_unlock
 .text._malloc_usable_size_r
                0x0800a330       0x10 d:/progra~2/stm32c~1/gnu-to~1/bin/../lib/gcc/arm-none-eabi/9.2.1/../../../../arm-none-eabi/lib/thumb/v7-m/nofp\libg_nano.a(lib_a-nano-msizer.o)
                0x0800a330                _malloc_usable_size_r
 .text.__retarget_lock_acquire_recursive
                0x0800a340        0x2 d:/progra~2/stm32c~1/gnu-to~1/bin/../lib/gcc/arm-none-eabi/9.2.1/../../../../arm-none-eabi/lib/thumb/v7-m/nofp\libg_nano.a(lib_a-lock.o)
                0x0800a340                __retarget_lock_acquire_recursive
 .text.__retarget_lock_release_recursive
                0x0800a342        0x2 d:/progra~2/stm32c~1/gnu-to~1/bin/../lib/gcc/arm-none-eabi/9.2.1/../../../../arm-none-eabi/lib/thumb/v7-m/nofp\libg_nano.a(lib_a-lock.o)
                0x0800a342                __retarget_lock_release_recursive
 *fill*         0x0800a344        0x4 
 .text.ceil     0x0800a348       0xf8 d:/progra~2/stm32c~1/gnu-to~1/bin/../lib/gcc/arm-none-eabi/9.2.1/../../../../arm-none-eabi/lib/thumb/v7-m/nofp\libm.a(lib_a-s_ceil.o)
                0x0800a348                ceil
 .text.floor    0x0800a440       0xf8 d:/progra~2/stm32c~1/gnu-to~1/bin/../lib/gcc/arm-none-eabi/9.2.1/../../../../arm-none-eabi/lib/thumb/v7-m/nofp\libm.a(lib_a-s_floor.o)
                0x0800a440                floor
 .text.lround   0x0800a538       0x9c d:/progra~2/stm32c~1/gnu-to~1/bin/../lib/gcc/arm-none-eabi/9.2.1/../../../../arm-none-eabi/lib/thumb/v7-m/nofp\libm.a(lib_a-s_lround.o)
                0x0800a538                lround
 .text.round    0x0800a5d4       0x90 d:/progra~2/stm32c~1/gnu-to~1/bin/../lib/gcc/arm-none-eabi/9.2.1/../../../../arm-none-eabi/lib/thumb/v7-m/nofp\libm.a(lib_a-s_round.o)
                0x0800a5d4                round
 .text.trunc    0x0800a664       0x74 d:/progra~2/stm32c~1/gnu-to~1/bin/../lib/gcc/arm-none-eabi/9.2.1/../../../../arm-none-eabi/lib/thumb/v7-m/nofp\libm.a(lib_a-s_trunc.o)
                0x0800a664                trunc
 .text.ceilf    0x0800a6d8       0x7c d:/progra~2/stm32c~1/gnu-to~1/bin/../lib/gcc/arm-none-eabi/9.2.1/../../../../arm-none-eabi/lib/thumb/v7-m/nofp\libm.a(lib_a-sf_ceil.o)
                0x0800a6d8                ceilf
 .text.cosf     0x0800a754       0x78 d:/progra~2/stm32c~1/gnu-to~1/bin/../lib/gcc/arm-none-eabi/9.2.1/../../../../arm-none-eabi/lib/thumb/v7-m/nofp\libm.a(lib_a-sf_cos.o)
                0x0800a754                cosf
 .text.sinf     0x0800a7cc       0x7c d:/progra~2/stm32c~1/gnu-to~1/bin/../lib/gcc/arm-none-eabi/9.2.1/../../../../arm-none-eabi/lib/thumb/v7-m/nofp\libm.a(lib_a-sf_sin.o)
                0x0800a7cc                sinf
 .text.sqrt     0x0800a848       0xc0 d:/progra~2/stm32c~1/gnu-to~1/bin/../lib/gcc/arm-none-eabi/9.2.1/../../../../arm-none-eabi/lib/thumb/v7-m/nofp\libm.a(lib_a-w_sqrt.o)
                0x0800a848                sqrt
 .text.atan2f   0x0800a908        0x4 d:/progra~2/stm32c~1/gnu-to~1/bin/../lib/gcc/arm-none-eabi/9.2.1/../../../../arm-none-eabi/lib/thumb/v7-m/nofp\libm.a(lib_a-wf_atan2.o)
                0x0800a908                atan2f
 .text.sqrtf    0x0800a90c       0xa4 d:/progra~2/stm32c~1/gnu-to~1/bin/../lib/gcc/arm-none-eabi/9.2.1/../../../../arm-none-eabi/lib/thumb/v7-m/nofp\libm.a(lib_a-wf_sqrt.o)
                0x0800a90c                sqrtf
 .text.__ieee754_sqrt
                0x0800a9b0      0x188 d:/progra~2/stm32c~1/gnu-to~1/bin/../lib/gcc/arm-none-eabi/9.2.1/../../../../arm-none-eabi/lib/thumb/v7-m/nofp\libm.a(lib_a-e_sqrt.o)
                0x0800a9b0                __ieee754_sqrt
 .text.__ieee754_atan2f
                0x0800ab38      0x110 d:/progra~2/stm32c~1/gnu-to~1/bin/../lib/gcc/arm-none-eabi/9.2.1/../../../../arm-none-eabi/lib/thumb/v7-m/nofp\libm.a(lib_a-ef_atan2.o)
                0x0800ab38                __ieee754_atan2f
 .text.__ieee754_rem_pio2f
                0x0800ac48      0x2e8 d:/progra~2/stm32c~1/gnu-to~1/bin/../lib/gcc/arm-none-eabi/9.2.1/../../../../arm-none-eabi/lib/thumb/v7-m/nofp\libm.a(lib_a-ef_rem_pio2.o)
                0x0800ac48                __ieee754_rem_pio2f
 .text.__ieee754_sqrtf
                0x0800af30       0xa8 d:/progra~2/stm32c~1/gnu-to~1/bin/../lib/gcc/arm-none-eabi/9.2.1/../../../../arm-none-eabi/lib/thumb/v7-m/nofp\libm.a(lib_a-ef_sqrt.o)
                0x0800af30                __ieee754_sqrtf
 .text.__kernel_cosf
                0x0800afd8      0x18c d:/progra~2/stm32c~1/gnu-to~1/bin/../lib/gcc/arm-none-eabi/9.2.1/../../../../arm-none-eabi/lib/thumb/v7-m/nofp\libm.a(lib_a-kf_cos.o)
                0x0800afd8                __kernel_cosf
 .text.__kernel_rem_pio2f
                0x0800b164      0x6e4 d:/progra~2/stm32c~1/gnu-to~1/bin/../lib/gcc/arm-none-eabi/9.2.1/../../../../arm-none-eabi/lib/thumb/v7-m/nofp\libm.a(lib_a-kf_rem_pio2.o)
                0x0800b164                __kernel_rem_pio2f
 .text.__kernel_sinf
                0x0800b848       0xec d:/progra~2/stm32c~1/gnu-to~1/bin/../lib/gcc/arm-none-eabi/9.2.1/../../../../arm-none-eabi/lib/thumb/v7-m/nofp\libm.a(lib_a-kf_sin.o)
                0x0800b848                __kernel_sinf
 .text.matherr  0x0800b934        0x4 d:/progra~2/stm32c~1/gnu-to~1/bin/../lib/gcc/arm-none-eabi/9.2.1/../../../../arm-none-eabi/lib/thumb/v7-m/nofp\libm.a(lib_a-s_matherr.o)
                0x0800b934                matherr
 .text.atanf    0x0800b938      0x230 d:/progra~2/stm32c~1/gnu-to~1/bin/../lib/gcc/arm-none-eabi/9.2.1/../../../../arm-none-eabi/lib/thumb/v7-m/nofp\libm.a(lib_a-sf_atan.o)
                0x0800b938                atanf
 .text.fabsf    0x0800bb68        0x8 d:/progra~2/stm32c~1/gnu-to~1/bin/../lib/gcc/arm-none-eabi/9.2.1/../../../../arm-none-eabi/lib/thumb/v7-m/nofp\libm.a(lib_a-sf_fabs.o)
                0x0800bb68                fabsf
 .text.floorf   0x0800bb70       0x80 d:/progra~2/stm32c~1/gnu-to~1/bin/../lib/gcc/arm-none-eabi/9.2.1/../../../../arm-none-eabi/lib/thumb/v7-m/nofp\libm.a(lib_a-sf_floor.o)
                0x0800bb70                floorf
 .text.scalbnf  0x0800bbf0       0xb0 d:/progra~2/stm32c~1/gnu-to~1/bin/../lib/gcc/arm-none-eabi/9.2.1/../../../../arm-none-eabi/lib/thumb/v7-m/nofp\libm.a(lib_a-sf_scalbn.o)
                0x0800bbf0                scalbnf
 *(.glue_7)
 .glue_7        0x0800bca0        0x0 linker stubs
 *(.glue_7t)
 .glue_7t       0x0800bca0        0x0 linker stubs
 *(.eh_frame)
 .eh_frame      0x0800bca0        0x0 d:/progra~2/stm32c~1/gnu-to~1/bin/../lib/gcc/arm-none-eabi/9.2.1/thumb/v7-m/nofp/crtbegin.o
 *(.init)
 .init          0x0800bca0        0x4 d:/progra~2/stm32c~1/gnu-to~1/bin/../lib/gcc/arm-none-eabi/9.2.1/thumb/v7-m/nofp/crti.o
                0x0800bca0                _init
 .init          0x0800bca4        0x8 d:/progra~2/stm32c~1/gnu-to~1/bin/../lib/gcc/arm-none-eabi/9.2.1/thumb/v7-m/nofp/crtn.o
 *(.fini)
 .fini          0x0800bcac        0x4 d:/progra~2/stm32c~1/gnu-to~1/bin/../lib/gcc/arm-none-eabi/9.2.1/thumb/v7-m/nofp/crti.o
                0x0800bcac                _fini
 .fini          0x0800bcb0        0x8 d:/progra~2/stm32c~1/gnu-to~1/bin/../lib/gcc/arm-none-eabi/9.2.1/thumb/v7-m/nofp/crtn.o
                0x0800bcb8                . = ALIGN (0x4)
                0x0800bcb8                _etext = .

.vfp11_veneer   0x0800bcb8        0x0
 .vfp11_veneer  0x0800bcb8        0x0 linker stubs

.v4_bx          0x0800bcb8        0x0
 .v4_bx         0x0800bcb8        0x0 linker stubs

.iplt           0x0800bcb8        0x0
 .iplt          0x0800bcb8        0x0 d:/progra~2/stm32c~1/gnu-to~1/bin/../lib/gcc/arm-none-eabi/9.2.1/thumb/v7-m/nofp/crtbegin.o

.rodata         0x0800bcb8      0x6c8
                0x0800bcb8                . = ALIGN (0x4)
 *(.rodata)
 *(.rodata*)
 .rodata.outputs_pin_mask
                0x0800bcb8        0x8 CMakeFiles/GRBL_STM32F103.elf.dir/App/bsp/inoutputs.c.obj
                0x0800bcb8                outputs_pin_mask
 .rodata.uart_init.str1.4
                0x0800bcc0        0xf CMakeFiles/GRBL_STM32F103.elf.dir/App/bsp/stm32utilities.c.obj
 *fill*         0x0800bccf        0x1 
 .rodata.direction_pin_mask
                0x0800bcd0        0x6 CMakeFiles/GRBL_STM32F103.elf.dir/App/bsp/stm32utilities.c.obj
                0x0800bcd0                direction_pin_mask
 *fill*         0x0800bcd6        0x2 
 .rodata.limit_pin_mask
                0x0800bcd8        0x6 CMakeFiles/GRBL_STM32F103.elf.dir/App/bsp/stm32utilities.c.obj
                0x0800bcd8                limit_pin_mask
 *fill*         0x0800bcde        0x2 
 .rodata.step_pin_mask
                0x0800bce0        0x6 CMakeFiles/GRBL_STM32F103.elf.dir/App/bsp/stm32utilities.c.obj
                0x0800bce0                step_pin_mask
 *fill*         0x0800bce6        0x2 
 .rodata.report_status_message.str1.4
                0x0800bce8        0xf CMakeFiles/GRBL_STM32F103.elf.dir/App/grbl/report.c.obj
                                 0x13 (size before relaxing)
 *fill*         0x0800bcf7        0x1 
 .rodata.report_alarm_message.str1.4
                0x0800bcf8        0x7 CMakeFiles/GRBL_STM32F103.elf.dir/App/grbl/report.c.obj
 *fill*         0x0800bcff        0x1 
 .rodata.report_feedback_message.str1.4
                0x0800bd00       0xad CMakeFiles/GRBL_STM32F103.elf.dir/App/grbl/report.c.obj
 *fill*         0x0800bdad        0x3 
 .rodata.report_init_message.str1.4
                0x0800bdb0       0x22 CMakeFiles/GRBL_STM32F103.elf.dir/App/grbl/report.c.obj
 *fill*         0x0800bdd2        0x2 
 .rodata.report_grbl_help.str1.4
                0x0800bdd4       0x4a CMakeFiles/GRBL_STM32F103.elf.dir/App/grbl/report.c.obj
 *fill*         0x0800be1e        0x2 
 .rodata.report_probe_parameters.str1.4
                0x0800be20        0x6 CMakeFiles/GRBL_STM32F103.elf.dir/App/grbl/report.c.obj
 *fill*         0x0800be26        0x2 
 .rodata.report_ngc_parameters.str1.4
                0x0800be28       0x1a CMakeFiles/GRBL_STM32F103.elf.dir/App/grbl/report.c.obj
 *fill*         0x0800be42        0x2 
 .rodata.report_gcode_modes.str1.4
                0x0800be44       0x1f CMakeFiles/GRBL_STM32F103.elf.dir/App/grbl/report.c.obj
 *fill*         0x0800be63        0x1 
 .rodata.report_startup_line.str1.4
                0x0800be64        0x3 CMakeFiles/GRBL_STM32F103.elf.dir/App/grbl/report.c.obj
 *fill*         0x0800be67        0x1 
 .rodata.report_build_info.str1.4
                0x0800be68       0x22 CMakeFiles/GRBL_STM32F103.elf.dir/App/grbl/report.c.obj
 *fill*         0x0800be8a        0x2 
 .rodata.report_realtime_status.str1.4
                0x0800be8c       0x7b CMakeFiles/GRBL_STM32F103.elf.dir/App/grbl/report.c.obj
 *fill*         0x0800bf07        0x1 
 .rodata.HAL_RCC_ClockConfig.str1.4
                0x0800bf08       0x11 CMakeFiles/GRBL_STM32F103.elf.dir/Drivers/STM32F1xx_HAL_Driver/Src/stm32f1xx_hal_rcc.c.obj
 *fill*         0x0800bf19        0x3 
 .rodata.AHBPrescTable
                0x0800bf1c       0x10 CMakeFiles/GRBL_STM32F103.elf.dir/Src/system_stm32f1xx.c.obj
                0x0800bf1c                AHBPrescTable
 .rodata.APBPrescTable
                0x0800bf2c        0x8 CMakeFiles/GRBL_STM32F103.elf.dir/Src/system_stm32f1xx.c.obj
                0x0800bf2c                APBPrescTable
 .rodata._svfprintf_r.str1.1
                0x0800bf34       0x11 d:/progra~2/stm32c~1/gnu-to~1/bin/../lib/gcc/arm-none-eabi/9.2.1/../../../../arm-none-eabi/lib/thumb/v7-m/nofp\libg_nano.a(lib_a-nano-svfprintf.o)
 .rodata._printf_i.str1.1
                0x0800bf45       0x22 d:/progra~2/stm32c~1/gnu-to~1/bin/../lib/gcc/arm-none-eabi/9.2.1/../../../../arm-none-eabi/lib/thumb/v7-m/nofp\libg_nano.a(lib_a-nano-vfprintf_i.o)
 *fill*         0x0800bf67        0x1 
 .rodata.sqrt.str1.4
                0x0800bf68        0x5 d:/progra~2/stm32c~1/gnu-to~1/bin/../lib/gcc/arm-none-eabi/9.2.1/../../../../arm-none-eabi/lib/thumb/v7-m/nofp\libm.a(lib_a-w_sqrt.o)
 *fill*         0x0800bf6d        0x3 
 .rodata.sqrtf.str1.4
                0x0800bf70        0x6 d:/progra~2/stm32c~1/gnu-to~1/bin/../lib/gcc/arm-none-eabi/9.2.1/../../../../arm-none-eabi/lib/thumb/v7-m/nofp\libm.a(lib_a-wf_sqrt.o)
 *fill*         0x0800bf76        0x2 
 .rodata.CSWTCH.8
                0x0800bf78        0xc d:/progra~2/stm32c~1/gnu-to~1/bin/../lib/gcc/arm-none-eabi/9.2.1/../../../../arm-none-eabi/lib/thumb/v7-m/nofp\libm.a(lib_a-ef_atan2.o)
 .rodata.CSWTCH.9
                0x0800bf84        0xc d:/progra~2/stm32c~1/gnu-to~1/bin/../lib/gcc/arm-none-eabi/9.2.1/../../../../arm-none-eabi/lib/thumb/v7-m/nofp\libm.a(lib_a-ef_atan2.o)
 .rodata.npio2_hw
                0x0800bf90       0x80 d:/progra~2/stm32c~1/gnu-to~1/bin/../lib/gcc/arm-none-eabi/9.2.1/../../../../arm-none-eabi/lib/thumb/v7-m/nofp\libm.a(lib_a-ef_rem_pio2.o)
 .rodata.two_over_pi
                0x0800c010      0x318 d:/progra~2/stm32c~1/gnu-to~1/bin/../lib/gcc/arm-none-eabi/9.2.1/../../../../arm-none-eabi/lib/thumb/v7-m/nofp\libm.a(lib_a-ef_rem_pio2.o)
 .rodata.PIo2   0x0800c328       0x2c d:/progra~2/stm32c~1/gnu-to~1/bin/../lib/gcc/arm-none-eabi/9.2.1/../../../../arm-none-eabi/lib/thumb/v7-m/nofp\libm.a(lib_a-kf_rem_pio2.o)
 .rodata.init_jk
                0x0800c354        0xc d:/progra~2/stm32c~1/gnu-to~1/bin/../lib/gcc/arm-none-eabi/9.2.1/../../../../arm-none-eabi/lib/thumb/v7-m/nofp\libm.a(lib_a-kf_rem_pio2.o)
 .rodata.atanhi
                0x0800c360       0x10 d:/progra~2/stm32c~1/gnu-to~1/bin/../lib/gcc/arm-none-eabi/9.2.1/../../../../arm-none-eabi/lib/thumb/v7-m/nofp\libm.a(lib_a-sf_atan.o)
 .rodata.atanlo
                0x0800c370       0x10 d:/progra~2/stm32c~1/gnu-to~1/bin/../lib/gcc/arm-none-eabi/9.2.1/../../../../arm-none-eabi/lib/thumb/v7-m/nofp\libm.a(lib_a-sf_atan.o)
                0x0800c380                . = ALIGN (0x4)

.rel.dyn        0x0800c380        0x0
 .rel.iplt      0x0800c380        0x0 d:/progra~2/stm32c~1/gnu-to~1/bin/../lib/gcc/arm-none-eabi/9.2.1/thumb/v7-m/nofp/crtbegin.o

.ARM.extab
 *(.ARM.extab* .gnu.linkonce.armextab.*)

.ARM            0x0800c380        0x0
                0x0800c380                __exidx_start = .
 *(.ARM.exidx*)
                0x0800c380                __exidx_end = .

.preinit_array  0x0800c380        0x0
                0x0800c380                PROVIDE (__preinit_array_start = .)
 *(.preinit_array*)
                0x0800c380                PROVIDE (__preinit_array_end = .)

.init_array     0x0800c380        0x4
                0x0800c380                PROVIDE (__init_array_start = .)
 *(SORT_BY_NAME(.init_array.*))
 *(.init_array*)
 .init_array    0x0800c380        0x4 d:/progra~2/stm32c~1/gnu-to~1/bin/../lib/gcc/arm-none-eabi/9.2.1/thumb/v7-m/nofp/crtbegin.o
                0x0800c384                PROVIDE (__init_array_end = .)

.fini_array     0x0800c384        0x4
                [!provide]                PROVIDE (__fini_array_start = .)
 *(SORT_BY_NAME(.fini_array.*))
 *(.fini_array*)
 .fini_array    0x0800c384        0x4 d:/progra~2/stm32c~1/gnu-to~1/bin/../lib/gcc/arm-none-eabi/9.2.1/thumb/v7-m/nofp/crtbegin.o
                [!provide]                PROVIDE (__fini_array_end = .)
                0x0800c388                _sidata = LOADADDR (.data)

.data           0x20000000       0x74 load address 0x0800c388
                0x20000000                . = ALIGN (0x4)
                0x20000000                _sdata = .
 *(.data)
 *(.data*)
 .data.uwTickFreq
                0x20000000        0x1 CMakeFiles/GRBL_STM32F103.elf.dir/Drivers/STM32F1xx_HAL_Driver/Src/stm32f1xx_hal.c.obj
                0x20000000                uwTickFreq
 *fill*         0x20000001        0x3 
 .data.uwTickPrio
                0x20000004        0x4 CMakeFiles/GRBL_STM32F103.elf.dir/Drivers/STM32F1xx_HAL_Driver/Src/stm32f1xx_hal.c.obj
                0x20000004                uwTickPrio
 .data.SystemCoreClock
                0x20000008        0x4 CMakeFiles/GRBL_STM32F103.elf.dir/Src/system_stm32f1xx.c.obj
                0x20000008                SystemCoreClock
 .data._impure_ptr
                0x2000000c        0x4 d:/progra~2/stm32c~1/gnu-to~1/bin/../lib/gcc/arm-none-eabi/9.2.1/../../../../arm-none-eabi/lib/thumb/v7-m/nofp\libg_nano.a(lib_a-impure.o)
                0x2000000c                _impure_ptr
 .data.impure_data
                0x20000010       0x60 d:/progra~2/stm32c~1/gnu-to~1/bin/../lib/gcc/arm-none-eabi/9.2.1/../../../../arm-none-eabi/lib/thumb/v7-m/nofp\libg_nano.a(lib_a-impure.o)
 .data.__fdlib_version
                0x20000070        0x1 d:/progra~2/stm32c~1/gnu-to~1/bin/../lib/gcc/arm-none-eabi/9.2.1/../../../../arm-none-eabi/lib/thumb/v7-m/nofp\libm.a(lib_a-s_lib_ver.o)
                0x20000070                __fdlib_version
                0x20000074                . = ALIGN (0x4)
 *fill*         0x20000071        0x3 
                0x20000074                _edata = .

.igot.plt       0x20000074        0x0 load address 0x0800c3fc
 .igot.plt      0x20000074        0x0 d:/progra~2/stm32c~1/gnu-to~1/bin/../lib/gcc/arm-none-eabi/9.2.1/thumb/v7-m/nofp/crtbegin.o
                0x20000074                . = ALIGN (0x4)

.bss            0x20000078     0x3440 load address 0x0800c3fc
                0x20000078                _sbss = .
                0x20000078                __bss_start__ = _sbss
 *(.bss)
 .bss           0x20000078       0x1c d:/progra~2/stm32c~1/gnu-to~1/bin/../lib/gcc/arm-none-eabi/9.2.1/thumb/v7-m/nofp/crtbegin.o
 *(.bss*)
 .bss.fTICKS_PER_MINUTE
                0x20000094        0x4 CMakeFiles/GRBL_STM32F103.elf.dir/App/bsp/stm32utilities.c.obj
                0x20000094                fTICKS_PER_MINUTE
 .bss.pDbgStr   0x20000098       0x50 CMakeFiles/GRBL_STM32F103.elf.dir/App/bsp/stm32utilities.c.obj
                0x20000098                pDbgStr
 .bss.uTICKS_PER_MICROSECOND
                0x200000e8        0x4 CMakeFiles/GRBL_STM32F103.elf.dir/App/bsp/stm32utilities.c.obj
                0x200000e8                uTICKS_PER_MICROSECOND
 .bss.EE_Buffer
                0x200000ec      0x400 CMakeFiles/GRBL_STM32F103.elf.dir/App/grbl/eeprom.c.obj
                0x200000ec                EE_Buffer
 .bss.gc_block  0x200004ec       0x4c CMakeFiles/GRBL_STM32F103.elf.dir/App/grbl/gcode.c.obj
                0x200004ec                gc_block
 .bss.gc_state  0x20000538       0x48 CMakeFiles/GRBL_STM32F103.elf.dir/App/grbl/gcode.c.obj
                0x20000538                gc_state
 .bss.block_buffer
                0x20000580     0x28a0 CMakeFiles/GRBL_STM32F103.elf.dir/App/grbl/planner.c.obj
 .bss.block_buffer_head
                0x20002e20        0x1 CMakeFiles/GRBL_STM32F103.elf.dir/App/grbl/planner.c.obj
 .bss.block_buffer_planned
                0x20002e21        0x1 CMakeFiles/GRBL_STM32F103.elf.dir/App/grbl/planner.c.obj
 .bss.block_buffer_tail
                0x20002e22        0x1 CMakeFiles/GRBL_STM32F103.elf.dir/App/grbl/planner.c.obj
 .bss.next_buffer_head
                0x20002e23        0x1 CMakeFiles/GRBL_STM32F103.elf.dir/App/grbl/planner.c.obj
 .bss.pl        0x20002e24       0x1c CMakeFiles/GRBL_STM32F103.elf.dir/App/grbl/planner.c.obj
 .bss.probe_invert_mask
                0x20002e40        0x2 CMakeFiles/GRBL_STM32F103.elf.dir/App/grbl/probe.c.obj
                0x20002e40                probe_invert_mask
 *fill*         0x20002e42        0x2 
 .bss.line      0x20002e44       0x50 CMakeFiles/GRBL_STM32F103.elf.dir/App/grbl/protocol.c.obj
 .bss.serial_rx_buffer
                0x20002e94       0xfe CMakeFiles/GRBL_STM32F103.elf.dir/App/grbl/serial.c.obj
                0x20002e94                serial_rx_buffer
 .bss.serial_rx_buffer_head
                0x20002f92        0x1 CMakeFiles/GRBL_STM32F103.elf.dir/App/grbl/serial.c.obj
                0x20002f92                serial_rx_buffer_head
 .bss.serial_rx_buffer_tail
                0x20002f93        0x1 CMakeFiles/GRBL_STM32F103.elf.dir/App/grbl/serial.c.obj
                0x20002f93                serial_rx_buffer_tail
 .bss.adjustments
                0x20002f94       0x18 CMakeFiles/GRBL_STM32F103.elf.dir/App/grbl/settings.c.obj
                0x20002f94                adjustments
 .bss.settings  0x20002fac       0x64 CMakeFiles/GRBL_STM32F103.elf.dir/App/grbl/settings.c.obj
                0x20002fac                settings
 .bss.pwm_gradient
                0x20003010        0x4 CMakeFiles/GRBL_STM32F103.elf.dir/App/grbl/spindle_control.c.obj
 .bss.busy      0x20003014        0x1 CMakeFiles/GRBL_STM32F103.elf.dir/App/grbl/stepper.c.obj
 *fill*         0x20003015        0x1 
 .bss.dir_port_invert_mask
                0x20003016        0x2 CMakeFiles/GRBL_STM32F103.elf.dir/App/grbl/stepper.c.obj
 .bss.pl_block  0x20003018        0x4 CMakeFiles/GRBL_STM32F103.elf.dir/App/grbl/stepper.c.obj
 .bss.prep      0x2000301c       0x38 CMakeFiles/GRBL_STM32F103.elf.dir/App/grbl/stepper.c.obj
 .bss.segment_buffer
                0x20003054      0x100 CMakeFiles/GRBL_STM32F103.elf.dir/App/grbl/stepper.c.obj
 .bss.segment_buffer_head
                0x20003154        0x1 CMakeFiles/GRBL_STM32F103.elf.dir/App/grbl/stepper.c.obj
 .bss.segment_buffer_tail
                0x20003155        0x1 CMakeFiles/GRBL_STM32F103.elf.dir/App/grbl/stepper.c.obj
 .bss.segment_next_head
                0x20003156        0x1 CMakeFiles/GRBL_STM32F103.elf.dir/App/grbl/stepper.c.obj
 *fill*         0x20003157        0x1 
 .bss.st        0x20003158       0x38 CMakeFiles/GRBL_STM32F103.elf.dir/App/grbl/stepper.c.obj
 .bss.st_block_buffer
                0x20003190      0x26c CMakeFiles/GRBL_STM32F103.elf.dir/App/grbl/stepper.c.obj
 .bss.st_prep_block
                0x200033fc        0x4 CMakeFiles/GRBL_STM32F103.elf.dir/App/grbl/stepper.c.obj
 .bss.step_port_invert_mask
                0x20003400        0x2 CMakeFiles/GRBL_STM32F103.elf.dir/App/grbl/stepper.c.obj
 *fill*         0x20003402        0x2 
 .bss.uwTick    0x20003404        0x4 CMakeFiles/GRBL_STM32F103.elf.dir/Drivers/STM32F1xx_HAL_Driver/Src/stm32f1xx_hal.c.obj
                0x20003404                uwTick
 .bss.pFlash    0x20003408       0x20 CMakeFiles/GRBL_STM32F103.elf.dir/Drivers/STM32F1xx_HAL_Driver/Src/stm32f1xx_hal_flash.c.obj
                0x20003408                pFlash
 .bss.sys       0x20003428       0x14 CMakeFiles/GRBL_STM32F103.elf.dir/Src/main.c.obj
                0x20003428                sys
 .bss.sys_position
                0x2000343c        0xc CMakeFiles/GRBL_STM32F103.elf.dir/Src/main.c.obj
                0x2000343c                sys_position
 .bss.sys_probe_position
                0x20003448        0xc CMakeFiles/GRBL_STM32F103.elf.dir/Src/main.c.obj
                0x20003448                sys_probe_position
 .bss.sys_probe_state
                0x20003454        0x1 CMakeFiles/GRBL_STM32F103.elf.dir/Src/main.c.obj
                0x20003454                sys_probe_state
 .bss.sys_rt_exec_accessory_override
                0x20003455        0x1 CMakeFiles/GRBL_STM32F103.elf.dir/Src/main.c.obj
                0x20003455                sys_rt_exec_accessory_override
 .bss.sys_rt_exec_alarm
                0x20003456        0x1 CMakeFiles/GRBL_STM32F103.elf.dir/Src/main.c.obj
                0x20003456                sys_rt_exec_alarm
 .bss.sys_rt_exec_motion_override
                0x20003457        0x1 CMakeFiles/GRBL_STM32F103.elf.dir/Src/main.c.obj
                0x20003457                sys_rt_exec_motion_override
 .bss.sys_rt_exec_state
                0x20003458        0x1 CMakeFiles/GRBL_STM32F103.elf.dir/Src/main.c.obj
                0x20003458                sys_rt_exec_state
 *fill*         0x20003459        0x3 
 .bss.heap_end.6018
                0x2000345c        0x4 CMakeFiles/GRBL_STM32F103.elf.dir/Src/syscalls.c.obj
 .bss.htim4     0x20003460       0x40 CMakeFiles/GRBL_STM32F103.elf.dir/Src/tim.c.obj
                0x20003460                htim4
 .bss.__malloc_free_list
                0x200034a0        0x4 d:/progra~2/stm32c~1/gnu-to~1/bin/../lib/gcc/arm-none-eabi/9.2.1/../../../../arm-none-eabi/lib/thumb/v7-m/nofp\libg_nano.a(lib_a-nano-mallocr.o)
                0x200034a0                __malloc_free_list
 .bss.__malloc_sbrk_start
                0x200034a4        0x4 d:/progra~2/stm32c~1/gnu-to~1/bin/../lib/gcc/arm-none-eabi/9.2.1/../../../../arm-none-eabi/lib/thumb/v7-m/nofp\libg_nano.a(lib_a-nano-mallocr.o)
                0x200034a4                __malloc_sbrk_start
 *(COMMON)
 COMMON         0x200034a8        0x4 d:/progra~2/stm32c~1/gnu-to~1/bin/../lib/gcc/arm-none-eabi/9.2.1/../../../../arm-none-eabi/lib/thumb/v7-m/nofp\libg_nano.a(lib_a-reent.o)
                0x200034a8                errno
 COMMON         0x200034ac        0x9 d:/progra~2/stm32c~1/gnu-to~1/bin/../lib/gcc/arm-none-eabi/9.2.1/../../../../arm-none-eabi/lib/thumb/v7-m/nofp\libg_nano.a(lib_a-lock.o)
                0x200034ac                __lock___atexit_recursive_mutex
                0x200034ad                __lock___arc4random_mutex
                0x200034ae                __lock___env_recursive_mutex
                0x200034af                __lock___sinit_recursive_mutex
                0x200034b0                __lock___malloc_recursive_mutex
                0x200034b1                __lock___at_quick_exit_mutex
                0x200034b2                __lock___dd_hash_mutex
                0x200034b3                __lock___tz_mutex
                0x200034b4                __lock___sfp_recursive_mutex
                0x200034b8                . = ALIGN (0x4)
 *fill*         0x200034b5        0x3 
                0x200034b8                _ebss = .
                0x200034b8                __bss_end__ = _ebss

._user_heap_stack
                0x200034b8      0x600 load address 0x0800c3fc
                0x200034b8                . = ALIGN (0x8)
                0x200034b8                PROVIDE (end = .)
                [!provide]                PROVIDE (_end = .)
                0x200036b8                . = (. + _Min_Heap_Size)
 *fill*         0x200034b8      0x200 
                0x20003ab8                . = (. + _Min_Stack_Size)
 *fill*         0x200036b8      0x400 
                0x20003ab8                . = ALIGN (0x8)

/DISCARD/
 libc.a(*)
 libm.a(*)
 libgcc.a(*)

.ARM.attributes
                0x00000000       0x29
 *(.ARM.attributes)
 .ARM.attributes
                0x00000000       0x1d d:/progra~2/stm32c~1/gnu-to~1/bin/../lib/gcc/arm-none-eabi/9.2.1/thumb/v7-m/nofp/crti.o
 .ARM.attributes
                0x0000001d       0x2d d:/progra~2/stm32c~1/gnu-to~1/bin/../lib/gcc/arm-none-eabi/9.2.1/thumb/v7-m/nofp/crtbegin.o
 .ARM.attributes
                0x0000004a       0x2d CMakeFiles/GRBL_STM32F103.elf.dir/App/bsp/inoutputs.c.obj
 .ARM.attributes
                0x00000077       0x2d CMakeFiles/GRBL_STM32F103.elf.dir/App/bsp/stm32utilities.c.obj
 .ARM.attributes
                0x000000a4       0x2d CMakeFiles/GRBL_STM32F103.elf.dir/App/grbl/coolant_control.c.obj
 .ARM.attributes
                0x000000d1       0x2d CMakeFiles/GRBL_STM32F103.elf.dir/App/grbl/eeprom.c.obj
 .ARM.attributes
                0x000000fe       0x2d CMakeFiles/GRBL_STM32F103.elf.dir/App/grbl/gcode.c.obj
 .ARM.attributes
                0x0000012b       0x2d CMakeFiles/GRBL_STM32F103.elf.dir/App/grbl/jog.c.obj
 .ARM.attributes
                0x00000158       0x2d CMakeFiles/GRBL_STM32F103.elf.dir/App/grbl/limits.c.obj
 .ARM.attributes
                0x00000185       0x2d CMakeFiles/GRBL_STM32F103.elf.dir/App/grbl/motion_control.c.obj
 .ARM.attributes
                0x000001b2       0x2d CMakeFiles/GRBL_STM32F103.elf.dir/App/grbl/nuts_bolts.c.obj
 .ARM.attributes
                0x000001df       0x2d CMakeFiles/GRBL_STM32F103.elf.dir/App/grbl/planner.c.obj
 .ARM.attributes
                0x0000020c       0x2d CMakeFiles/GRBL_STM32F103.elf.dir/App/grbl/print.c.obj
 .ARM.attributes
                0x00000239       0x2d CMakeFiles/GRBL_STM32F103.elf.dir/App/grbl/probe.c.obj
 .ARM.attributes
                0x00000266       0x2d CMakeFiles/GRBL_STM32F103.elf.dir/App/grbl/protocol.c.obj
 .ARM.attributes
                0x00000293       0x2d CMakeFiles/GRBL_STM32F103.elf.dir/App/grbl/report.c.obj
 .ARM.attributes
                0x000002c0       0x2d CMakeFiles/GRBL_STM32F103.elf.dir/App/grbl/serial.c.obj
 .ARM.attributes
                0x000002ed       0x2d CMakeFiles/GRBL_STM32F103.elf.dir/App/grbl/settings.c.obj
 .ARM.attributes
                0x0000031a       0x2d CMakeFiles/GRBL_STM32F103.elf.dir/App/grbl/spindle_control.c.obj
 .ARM.attributes
                0x00000347       0x2d CMakeFiles/GRBL_STM32F103.elf.dir/App/grbl/stepper.c.obj
 .ARM.attributes
                0x00000374       0x2d CMakeFiles/GRBL_STM32F103.elf.dir/App/grbl/system.c.obj
 .ARM.attributes
                0x000003a1       0x2d CMakeFiles/GRBL_STM32F103.elf.dir/Drivers/STM32F1xx_HAL_Driver/Src/stm32f1xx_hal.c.obj
 .ARM.attributes
                0x000003ce       0x2d CMakeFiles/GRBL_STM32F103.elf.dir/Drivers/STM32F1xx_HAL_Driver/Src/stm32f1xx_hal_cortex.c.obj
 .ARM.attributes
                0x000003fb       0x2d CMakeFiles/GRBL_STM32F103.elf.dir/Drivers/STM32F1xx_HAL_Driver/Src/stm32f1xx_hal_flash.c.obj
 .ARM.attributes
                0x00000428       0x2d CMakeFiles/GRBL_STM32F103.elf.dir/Drivers/STM32F1xx_HAL_Driver/Src/stm32f1xx_hal_flash_ex.c.obj
 .ARM.attributes
                0x00000455       0x2d CMakeFiles/GRBL_STM32F103.elf.dir/Drivers/STM32F1xx_HAL_Driver/Src/stm32f1xx_hal_gpio.c.obj
 .ARM.attributes
                0x00000482       0x2d CMakeFiles/GRBL_STM32F103.elf.dir/Drivers/STM32F1xx_HAL_Driver/Src/stm32f1xx_hal_rcc.c.obj
 .ARM.attributes
                0x000004af       0x2d CMakeFiles/GRBL_STM32F103.elf.dir/Drivers/STM32F1xx_HAL_Driver/Src/stm32f1xx_hal_tim.c.obj
 .ARM.attributes
                0x000004dc       0x2d CMakeFiles/GRBL_STM32F103.elf.dir/Drivers/STM32F1xx_HAL_Driver/Src/stm32f1xx_hal_tim_ex.c.obj
 .ARM.attributes
                0x00000509       0x2d CMakeFiles/GRBL_STM32F103.elf.dir/Drivers/STM32F1xx_HAL_Driver/Src/stm32f1xx_ll_gpio.c.obj
 .ARM.attributes
                0x00000536       0x2d CMakeFiles/GRBL_STM32F103.elf.dir/Drivers/STM32F1xx_HAL_Driver/Src/stm32f1xx_ll_rcc.c.obj
 .ARM.attributes
                0x00000563       0x2d CMakeFiles/GRBL_STM32F103.elf.dir/Drivers/STM32F1xx_HAL_Driver/Src/stm32f1xx_ll_tim.c.obj
 .ARM.attributes
                0x00000590       0x2d CMakeFiles/GRBL_STM32F103.elf.dir/Drivers/STM32F1xx_HAL_Driver/Src/stm32f1xx_ll_usart.c.obj
 .ARM.attributes
                0x000005bd       0x2d CMakeFiles/GRBL_STM32F103.elf.dir/Src/gpio.c.obj
 .ARM.attributes
                0x000005ea       0x2d CMakeFiles/GRBL_STM32F103.elf.dir/Src/main.c.obj
 .ARM.attributes
                0x00000617       0x2d CMakeFiles/GRBL_STM32F103.elf.dir/Src/stm32f1xx_hal_msp.c.obj
 .ARM.attributes
                0x00000644       0x2d CMakeFiles/GRBL_STM32F103.elf.dir/Src/stm32f1xx_it.c.obj
 .ARM.attributes
                0x00000671       0x2d CMakeFiles/GRBL_STM32F103.elf.dir/Src/syscalls.c.obj
 .ARM.attributes
                0x0000069e       0x2d CMakeFiles/GRBL_STM32F103.elf.dir/Src/system_stm32f1xx.c.obj
 .ARM.attributes
                0x000006cb       0x2d CMakeFiles/GRBL_STM32F103.elf.dir/Src/tim.c.obj
 .ARM.attributes
                0x000006f8       0x2d CMakeFiles/GRBL_STM32F103.elf.dir/Src/usart.c.obj
 .ARM.attributes
                0x00000725       0x21 CMakeFiles/GRBL_STM32F103.elf.dir/startup/startup_stm32f103xb.s.obj
 .ARM.attributes
                0x00000746       0x1d d:/progra~2/stm32c~1/gnu-to~1/bin/../lib/gcc/arm-none-eabi/9.2.1/thumb/v7-m/nofp\libgcc.a(_arm_addsubdf3.o)
 .ARM.attributes
                0x00000763       0x1d d:/progra~2/stm32c~1/gnu-to~1/bin/../lib/gcc/arm-none-eabi/9.2.1/thumb/v7-m/nofp\libgcc.a(_arm_muldivdf3.o)
 .ARM.attributes
                0x00000780       0x1d d:/progra~2/stm32c~1/gnu-to~1/bin/../lib/gcc/arm-none-eabi/9.2.1/thumb/v7-m/nofp\libgcc.a(_arm_cmpdf2.o)
 .ARM.attributes
                0x0000079d       0x1d d:/progra~2/stm32c~1/gnu-to~1/bin/../lib/gcc/arm-none-eabi/9.2.1/thumb/v7-m/nofp\libgcc.a(_arm_fixunsdfsi.o)
 .ARM.attributes
                0x000007ba       0x1d d:/progra~2/stm32c~1/gnu-to~1/bin/../lib/gcc/arm-none-eabi/9.2.1/thumb/v7-m/nofp\libgcc.a(_arm_truncdfsf2.o)
 .ARM.attributes
                0x000007d7       0x1d d:/progra~2/stm32c~1/gnu-to~1/bin/../lib/gcc/arm-none-eabi/9.2.1/thumb/v7-m/nofp\libgcc.a(_arm_addsubsf3.o)
 .ARM.attributes
                0x000007f4       0x1d d:/progra~2/stm32c~1/gnu-to~1/bin/../lib/gcc/arm-none-eabi/9.2.1/thumb/v7-m/nofp\libgcc.a(_arm_muldivsf3.o)
 .ARM.attributes
                0x00000811       0x1d d:/progra~2/stm32c~1/gnu-to~1/bin/../lib/gcc/arm-none-eabi/9.2.1/thumb/v7-m/nofp\libgcc.a(_arm_cmpsf2.o)
 .ARM.attributes
                0x0000082e       0x1d d:/progra~2/stm32c~1/gnu-to~1/bin/../lib/gcc/arm-none-eabi/9.2.1/thumb/v7-m/nofp\libgcc.a(_arm_fixsfsi.o)
 .ARM.attributes
                0x0000084b       0x1d d:/progra~2/stm32c~1/gnu-to~1/bin/../lib/gcc/arm-none-eabi/9.2.1/thumb/v7-m/nofp\libgcc.a(_arm_fixunssfsi.o)
 .ARM.attributes
                0x00000868       0x2d d:/progra~2/stm32c~1/gnu-to~1/bin/../lib/gcc/arm-none-eabi/9.2.1/../../../../arm-none-eabi/lib/thumb/v7-m/nofp\libg_nano.a(lib_a-errno.o)
 .ARM.attributes
                0x00000895       0x2d d:/progra~2/stm32c~1/gnu-to~1/bin/../lib/gcc/arm-none-eabi/9.2.1/../../../../arm-none-eabi/lib/thumb/v7-m/nofp\libg_nano.a(lib_a-impure.o)
 .ARM.attributes
                0x000008c2       0x2d d:/progra~2/stm32c~1/gnu-to~1/bin/../lib/gcc/arm-none-eabi/9.2.1/../../../../arm-none-eabi/lib/thumb/v7-m/nofp\libg_nano.a(lib_a-init.o)
 .ARM.attributes
                0x000008ef       0x2d d:/progra~2/stm32c~1/gnu-to~1/bin/../lib/gcc/arm-none-eabi/9.2.1/../../../../arm-none-eabi/lib/thumb/v7-m/nofp\libg_nano.a(lib_a-memcmp.o)
 .ARM.attributes
                0x0000091c       0x2d d:/progra~2/stm32c~1/gnu-to~1/bin/../lib/gcc/arm-none-eabi/9.2.1/../../../../arm-none-eabi/lib/thumb/v7-m/nofp\libg_nano.a(lib_a-memset.o)
 .ARM.attributes
                0x00000949       0x2d d:/progra~2/stm32c~1/gnu-to~1/bin/../lib/gcc/arm-none-eabi/9.2.1/../../../../arm-none-eabi/lib/thumb/v7-m/nofp\libg_nano.a(lib_a-sprintf.o)
 .ARM.attributes
                0x00000976       0x2d d:/progra~2/stm32c~1/gnu-to~1/bin/../lib/gcc/arm-none-eabi/9.2.1/../../../../arm-none-eabi/lib/thumb/v7-m/nofp\libg_nano.a(lib_a-nano-svfprintf.o)
 .ARM.attributes
                0x000009a3       0x2d d:/progra~2/stm32c~1/gnu-to~1/bin/../lib/gcc/arm-none-eabi/9.2.1/../../../../arm-none-eabi/lib/thumb/v7-m/nofp\libg_nano.a(lib_a-nano-vfprintf_i.o)
 .ARM.attributes
                0x000009d0       0x2d d:/progra~2/stm32c~1/gnu-to~1/bin/../lib/gcc/arm-none-eabi/9.2.1/../../../../arm-none-eabi/lib/thumb/v7-m/nofp\libg_nano.a(lib_a-memchr-stub.o)
 .ARM.attributes
                0x000009fd       0x2d d:/progra~2/stm32c~1/gnu-to~1/bin/../lib/gcc/arm-none-eabi/9.2.1/../../../../arm-none-eabi/lib/thumb/v7-m/nofp\libg_nano.a(lib_a-memcpy-stub.o)
 .ARM.attributes
                0x00000a2a       0x2d d:/progra~2/stm32c~1/gnu-to~1/bin/../lib/gcc/arm-none-eabi/9.2.1/../../../../arm-none-eabi/lib/thumb/v7-m/nofp\libg_nano.a(lib_a-memmove.o)
 .ARM.attributes
                0x00000a57       0x2d d:/progra~2/stm32c~1/gnu-to~1/bin/../lib/gcc/arm-none-eabi/9.2.1/../../../../arm-none-eabi/lib/thumb/v7-m/nofp\libg_nano.a(lib_a-nano-freer.o)
 .ARM.attributes
                0x00000a84       0x2d d:/progra~2/stm32c~1/gnu-to~1/bin/../lib/gcc/arm-none-eabi/9.2.1/../../../../arm-none-eabi/lib/thumb/v7-m/nofp\libg_nano.a(lib_a-nano-mallocr.o)
 .ARM.attributes
                0x00000ab1       0x2d d:/progra~2/stm32c~1/gnu-to~1/bin/../lib/gcc/arm-none-eabi/9.2.1/../../../../arm-none-eabi/lib/thumb/v7-m/nofp\libg_nano.a(lib_a-nano-reallocr.o)
 .ARM.attributes
                0x00000ade       0x2d d:/progra~2/stm32c~1/gnu-to~1/bin/../lib/gcc/arm-none-eabi/9.2.1/../../../../arm-none-eabi/lib/thumb/v7-m/nofp\libg_nano.a(lib_a-sbrkr.o)
 .ARM.attributes
                0x00000b0b       0x2d d:/progra~2/stm32c~1/gnu-to~1/bin/../lib/gcc/arm-none-eabi/9.2.1/../../../../arm-none-eabi/lib/thumb/v7-m/nofp\libg_nano.a(lib_a-mlock.o)
 .ARM.attributes
                0x00000b38       0x2d d:/progra~2/stm32c~1/gnu-to~1/bin/../lib/gcc/arm-none-eabi/9.2.1/../../../../arm-none-eabi/lib/thumb/v7-m/nofp\libg_nano.a(lib_a-nano-msizer.o)
 .ARM.attributes
                0x00000b65       0x2d d:/progra~2/stm32c~1/gnu-to~1/bin/../lib/gcc/arm-none-eabi/9.2.1/../../../../arm-none-eabi/lib/thumb/v7-m/nofp\libg_nano.a(lib_a-reent.o)
 .ARM.attributes
                0x00000b92       0x2d d:/progra~2/stm32c~1/gnu-to~1/bin/../lib/gcc/arm-none-eabi/9.2.1/../../../../arm-none-eabi/lib/thumb/v7-m/nofp\libg_nano.a(lib_a-lock.o)
 .ARM.attributes
                0x00000bbf       0x1d d:/progra~2/stm32c~1/gnu-to~1/bin/../lib/gcc/arm-none-eabi/9.2.1/thumb/v7-m/nofp/crtn.o
OUTPUT(GRBL_STM32F103.elf elf32-littlearm)

.debug_info     0x00000000    0x365c9
 .debug_info    0x00000000     0x1626 CMakeFiles/GRBL_STM32F103.elf.dir/App/bsp/inoutputs.c.obj
 .debug_info    0x00001626     0x18d1 CMakeFiles/GRBL_STM32F103.elf.dir/App/bsp/stm32utilities.c.obj
 .debug_info    0x00002ef7     0x1359 CMakeFiles/GRBL_STM32F103.elf.dir/App/grbl/coolant_control.c.obj
 .debug_info    0x00004250     0x13d7 CMakeFiles/GRBL_STM32F103.elf.dir/App/grbl/eeprom.c.obj
 .debug_info    0x00005627     0x1983 CMakeFiles/GRBL_STM32F103.elf.dir/App/grbl/gcode.c.obj
 .debug_info    0x00006faa     0x116d CMakeFiles/GRBL_STM32F103.elf.dir/App/grbl/jog.c.obj
 .debug_info    0x00008117     0x19cc CMakeFiles/GRBL_STM32F103.elf.dir/App/grbl/limits.c.obj
 .debug_info    0x00009ae3     0x1980 CMakeFiles/GRBL_STM32F103.elf.dir/App/grbl/motion_control.c.obj
 .debug_info    0x0000b463     0x143f CMakeFiles/GRBL_STM32F103.elf.dir/App/grbl/nuts_bolts.c.obj
 .debug_info    0x0000c8a2     0x18e1 CMakeFiles/GRBL_STM32F103.elf.dir/App/grbl/planner.c.obj
 .debug_info    0x0000e183     0x16f0 CMakeFiles/GRBL_STM32F103.elf.dir/App/grbl/print.c.obj
 .debug_info    0x0000f873     0x1158 CMakeFiles/GRBL_STM32F103.elf.dir/App/grbl/probe.c.obj
 .debug_info    0x000109cb     0x188d CMakeFiles/GRBL_STM32F103.elf.dir/App/grbl/protocol.c.obj
 .debug_info    0x00012258     0x3f74 CMakeFiles/GRBL_STM32F103.elf.dir/App/grbl/report.c.obj
 .debug_info    0x000161cc     0x135d CMakeFiles/GRBL_STM32F103.elf.dir/App/grbl/serial.c.obj
 .debug_info    0x00017529     0x18c9 CMakeFiles/GRBL_STM32F103.elf.dir/App/grbl/settings.c.obj
 .debug_info    0x00018df2     0x177c CMakeFiles/GRBL_STM32F103.elf.dir/App/grbl/spindle_control.c.obj
 .debug_info    0x0001a56e     0x2482 CMakeFiles/GRBL_STM32F103.elf.dir/App/grbl/stepper.c.obj
 .debug_info    0x0001c9f0     0x1c86 CMakeFiles/GRBL_STM32F103.elf.dir/App/grbl/system.c.obj
 .debug_info    0x0001e676      0x841 CMakeFiles/GRBL_STM32F103.elf.dir/Drivers/STM32F1xx_HAL_Driver/Src/stm32f1xx_hal.c.obj
 .debug_info    0x0001eeb7      0xe25 CMakeFiles/GRBL_STM32F103.elf.dir/Drivers/STM32F1xx_HAL_Driver/Src/stm32f1xx_hal_cortex.c.obj
 .debug_info    0x0001fcdc      0x871 CMakeFiles/GRBL_STM32F103.elf.dir/Drivers/STM32F1xx_HAL_Driver/Src/stm32f1xx_hal_flash.c.obj
 .debug_info    0x0002054d      0xdb6 CMakeFiles/GRBL_STM32F103.elf.dir/Drivers/STM32F1xx_HAL_Driver/Src/stm32f1xx_hal_flash_ex.c.obj
 .debug_info    0x00021303      0x72f CMakeFiles/GRBL_STM32F103.elf.dir/Drivers/STM32F1xx_HAL_Driver/Src/stm32f1xx_hal_gpio.c.obj
 .debug_info    0x00021a32      0xb4e CMakeFiles/GRBL_STM32F103.elf.dir/Drivers/STM32F1xx_HAL_Driver/Src/stm32f1xx_hal_rcc.c.obj
 .debug_info    0x00022580     0x48bb CMakeFiles/GRBL_STM32F103.elf.dir/Drivers/STM32F1xx_HAL_Driver/Src/stm32f1xx_hal_tim.c.obj
 .debug_info    0x00026e3b     0x1751 CMakeFiles/GRBL_STM32F103.elf.dir/Drivers/STM32F1xx_HAL_Driver/Src/stm32f1xx_hal_tim_ex.c.obj
 .debug_info    0x0002858c      0x96e CMakeFiles/GRBL_STM32F103.elf.dir/Drivers/STM32F1xx_HAL_Driver/Src/stm32f1xx_ll_gpio.c.obj
 .debug_info    0x00028efa      0xbef CMakeFiles/GRBL_STM32F103.elf.dir/Drivers/STM32F1xx_HAL_Driver/Src/stm32f1xx_ll_rcc.c.obj
 .debug_info    0x00029ae9     0x1381 CMakeFiles/GRBL_STM32F103.elf.dir/Drivers/STM32F1xx_HAL_Driver/Src/stm32f1xx_ll_tim.c.obj
 .debug_info    0x0002ae6a      0x87d CMakeFiles/GRBL_STM32F103.elf.dir/Drivers/STM32F1xx_HAL_Driver/Src/stm32f1xx_ll_usart.c.obj
 .debug_info    0x0002b6e7     0x1442 CMakeFiles/GRBL_STM32F103.elf.dir/Src/gpio.c.obj
 .debug_info    0x0002cb29     0x1b7e CMakeFiles/GRBL_STM32F103.elf.dir/Src/main.c.obj
 .debug_info    0x0002e6a7     0x1105 CMakeFiles/GRBL_STM32F103.elf.dir/Src/stm32f1xx_hal_msp.c.obj
 .debug_info    0x0002f7ac     0x1935 CMakeFiles/GRBL_STM32F103.elf.dir/Src/stm32f1xx_it.c.obj
 .debug_info    0x000310e1     0x1148 CMakeFiles/GRBL_STM32F103.elf.dir/Src/syscalls.c.obj
 .debug_info    0x00032229      0x475 CMakeFiles/GRBL_STM32F103.elf.dir/Src/system_stm32f1xx.c.obj
 .debug_info    0x0003269e     0x262d CMakeFiles/GRBL_STM32F103.elf.dir/Src/tim.c.obj
 .debug_info    0x00034ccb     0x18fe CMakeFiles/GRBL_STM32F103.elf.dir/Src/usart.c.obj

.debug_abbrev   0x00000000     0x8635
 .debug_abbrev  0x00000000      0x411 CMakeFiles/GRBL_STM32F103.elf.dir/App/bsp/inoutputs.c.obj
 .debug_abbrev  0x00000411      0x3e3 CMakeFiles/GRBL_STM32F103.elf.dir/App/bsp/stm32utilities.c.obj
 .debug_abbrev  0x000007f4      0x36e CMakeFiles/GRBL_STM32F103.elf.dir/App/grbl/coolant_control.c.obj
 .debug_abbrev  0x00000b62      0x38f CMakeFiles/GRBL_STM32F103.elf.dir/App/grbl/eeprom.c.obj
 .debug_abbrev  0x00000ef1      0x36f CMakeFiles/GRBL_STM32F103.elf.dir/App/grbl/gcode.c.obj
 .debug_abbrev  0x00001260      0x254 CMakeFiles/GRBL_STM32F103.elf.dir/App/grbl/jog.c.obj
 .debug_abbrev  0x000014b4      0x4d3 CMakeFiles/GRBL_STM32F103.elf.dir/App/grbl/limits.c.obj
 .debug_abbrev  0x00001987      0x3c9 CMakeFiles/GRBL_STM32F103.elf.dir/App/grbl/motion_control.c.obj
 .debug_abbrev  0x00001d50      0x399 CMakeFiles/GRBL_STM32F103.elf.dir/App/grbl/nuts_bolts.c.obj
 .debug_abbrev  0x000020e9      0x511 CMakeFiles/GRBL_STM32F103.elf.dir/App/grbl/planner.c.obj
 .debug_abbrev  0x000025fa      0x3db CMakeFiles/GRBL_STM32F103.elf.dir/App/grbl/print.c.obj
 .debug_abbrev  0x000029d5      0x2d4 CMakeFiles/GRBL_STM32F103.elf.dir/App/grbl/probe.c.obj
 .debug_abbrev  0x00002ca9      0x331 CMakeFiles/GRBL_STM32F103.elf.dir/App/grbl/protocol.c.obj
 .debug_abbrev  0x00002fda      0x4bc CMakeFiles/GRBL_STM32F103.elf.dir/App/grbl/report.c.obj
 .debug_abbrev  0x00003496      0x2d3 CMakeFiles/GRBL_STM32F103.elf.dir/App/grbl/serial.c.obj
 .debug_abbrev  0x00003769      0x4a4 CMakeFiles/GRBL_STM32F103.elf.dir/App/grbl/settings.c.obj
 .debug_abbrev  0x00003c0d      0x474 CMakeFiles/GRBL_STM32F103.elf.dir/App/grbl/spindle_control.c.obj
 .debug_abbrev  0x00004081      0x4c2 CMakeFiles/GRBL_STM32F103.elf.dir/App/grbl/stepper.c.obj
 .debug_abbrev  0x00004543      0x568 CMakeFiles/GRBL_STM32F103.elf.dir/App/grbl/system.c.obj
 .debug_abbrev  0x00004aab      0x28e CMakeFiles/GRBL_STM32F103.elf.dir/Drivers/STM32F1xx_HAL_Driver/Src/stm32f1xx_hal.c.obj
 .debug_abbrev  0x00004d39      0x35b CMakeFiles/GRBL_STM32F103.elf.dir/Drivers/STM32F1xx_HAL_Driver/Src/stm32f1xx_hal_cortex.c.obj
 .debug_abbrev  0x00005094      0x353 CMakeFiles/GRBL_STM32F103.elf.dir/Drivers/STM32F1xx_HAL_Driver/Src/stm32f1xx_hal_flash.c.obj
 .debug_abbrev  0x000053e7      0x341 CMakeFiles/GRBL_STM32F103.elf.dir/Drivers/STM32F1xx_HAL_Driver/Src/stm32f1xx_hal_flash_ex.c.obj
 .debug_abbrev  0x00005728      0x225 CMakeFiles/GRBL_STM32F103.elf.dir/Drivers/STM32F1xx_HAL_Driver/Src/stm32f1xx_hal_gpio.c.obj
 .debug_abbrev  0x0000594d      0x328 CMakeFiles/GRBL_STM32F103.elf.dir/Drivers/STM32F1xx_HAL_Driver/Src/stm32f1xx_hal_rcc.c.obj
 .debug_abbrev  0x00005c75      0x387 CMakeFiles/GRBL_STM32F103.elf.dir/Drivers/STM32F1xx_HAL_Driver/Src/stm32f1xx_hal_tim.c.obj
 .debug_abbrev  0x00005ffc      0x350 CMakeFiles/GRBL_STM32F103.elf.dir/Drivers/STM32F1xx_HAL_Driver/Src/stm32f1xx_hal_tim_ex.c.obj
 .debug_abbrev  0x0000634c      0x290 CMakeFiles/GRBL_STM32F103.elf.dir/Drivers/STM32F1xx_HAL_Driver/Src/stm32f1xx_ll_gpio.c.obj
 .debug_abbrev  0x000065dc      0x35c CMakeFiles/GRBL_STM32F103.elf.dir/Drivers/STM32F1xx_HAL_Driver/Src/stm32f1xx_ll_rcc.c.obj
 .debug_abbrev  0x00006938      0x2d8 CMakeFiles/GRBL_STM32F103.elf.dir/Drivers/STM32F1xx_HAL_Driver/Src/stm32f1xx_ll_tim.c.obj
 .debug_abbrev  0x00006c10      0x2cc CMakeFiles/GRBL_STM32F103.elf.dir/Drivers/STM32F1xx_HAL_Driver/Src/stm32f1xx_ll_usart.c.obj
 .debug_abbrev  0x00006edc      0x26b CMakeFiles/GRBL_STM32F103.elf.dir/Src/gpio.c.obj
 .debug_abbrev  0x00007147      0x316 CMakeFiles/GRBL_STM32F103.elf.dir/Src/main.c.obj
 .debug_abbrev  0x0000745d      0x245 CMakeFiles/GRBL_STM32F103.elf.dir/Src/stm32f1xx_hal_msp.c.obj
 .debug_abbrev  0x000076a2      0x3eb CMakeFiles/GRBL_STM32F103.elf.dir/Src/stm32f1xx_it.c.obj
 .debug_abbrev  0x00007a8d      0x332 CMakeFiles/GRBL_STM32F103.elf.dir/Src/syscalls.c.obj
 .debug_abbrev  0x00007dbf      0x151 CMakeFiles/GRBL_STM32F103.elf.dir/Src/system_stm32f1xx.c.obj
 .debug_abbrev  0x00007f10      0x3e5 CMakeFiles/GRBL_STM32F103.elf.dir/Src/tim.c.obj
 .debug_abbrev  0x000082f5      0x340 CMakeFiles/GRBL_STM32F103.elf.dir/Src/usart.c.obj

.debug_loc      0x00000000    0x1539a
 .debug_loc     0x00000000      0x335 CMakeFiles/GRBL_STM32F103.elf.dir/App/bsp/inoutputs.c.obj
 .debug_loc     0x00000335      0x6c6 CMakeFiles/GRBL_STM32F103.elf.dir/App/bsp/stm32utilities.c.obj
 .debug_loc     0x000009fb      0x17e CMakeFiles/GRBL_STM32F103.elf.dir/App/grbl/coolant_control.c.obj
 .debug_loc     0x00000b79      0x4bd CMakeFiles/GRBL_STM32F103.elf.dir/App/grbl/eeprom.c.obj
 .debug_loc     0x00001036     0x1704 CMakeFiles/GRBL_STM32F103.elf.dir/App/grbl/gcode.c.obj
 .debug_loc     0x0000273a       0x73 CMakeFiles/GRBL_STM32F103.elf.dir/App/grbl/jog.c.obj
 .debug_loc     0x000027ad      0x79f CMakeFiles/GRBL_STM32F103.elf.dir/App/grbl/limits.c.obj
 .debug_loc     0x00002f4c      0x981 CMakeFiles/GRBL_STM32F103.elf.dir/App/grbl/motion_control.c.obj
 .debug_loc     0x000038cd      0x900 CMakeFiles/GRBL_STM32F103.elf.dir/App/grbl/nuts_bolts.c.obj
 .debug_loc     0x000041cd      0x873 CMakeFiles/GRBL_STM32F103.elf.dir/App/grbl/planner.c.obj
 .debug_loc     0x00004a40      0xed6 CMakeFiles/GRBL_STM32F103.elf.dir/App/grbl/print.c.obj
 .debug_loc     0x00005916       0x5f CMakeFiles/GRBL_STM32F103.elf.dir/App/grbl/probe.c.obj
 .debug_loc     0x00005975      0x34e CMakeFiles/GRBL_STM32F103.elf.dir/App/grbl/protocol.c.obj
 .debug_loc     0x00005cc3      0xfb8 CMakeFiles/GRBL_STM32F103.elf.dir/App/grbl/report.c.obj
 .debug_loc     0x00006c7b      0x156 CMakeFiles/GRBL_STM32F103.elf.dir/App/grbl/serial.c.obj
 .debug_loc     0x00006dd1      0x6b5 CMakeFiles/GRBL_STM32F103.elf.dir/App/grbl/settings.c.obj
 .debug_loc     0x00007486      0x6c7 CMakeFiles/GRBL_STM32F103.elf.dir/App/grbl/spindle_control.c.obj
 .debug_loc     0x00007b4d      0xfd2 CMakeFiles/GRBL_STM32F103.elf.dir/App/grbl/stepper.c.obj
 .debug_loc     0x00008b1f      0x91d CMakeFiles/GRBL_STM32F103.elf.dir/App/grbl/system.c.obj
 .debug_loc     0x0000943c      0x131 CMakeFiles/GRBL_STM32F103.elf.dir/Drivers/STM32F1xx_HAL_Driver/Src/stm32f1xx_hal.c.obj
 .debug_loc     0x0000956d      0x75e CMakeFiles/GRBL_STM32F103.elf.dir/Drivers/STM32F1xx_HAL_Driver/Src/stm32f1xx_hal_cortex.c.obj
 .debug_loc     0x00009ccb      0x5f5 CMakeFiles/GRBL_STM32F103.elf.dir/Drivers/STM32F1xx_HAL_Driver/Src/stm32f1xx_hal_flash.c.obj
 .debug_loc     0x0000a2c0      0x940 CMakeFiles/GRBL_STM32F103.elf.dir/Drivers/STM32F1xx_HAL_Driver/Src/stm32f1xx_hal_flash_ex.c.obj
 .debug_loc     0x0000ac00      0x467 CMakeFiles/GRBL_STM32F103.elf.dir/Drivers/STM32F1xx_HAL_Driver/Src/stm32f1xx_hal_gpio.c.obj
 .debug_loc     0x0000b067      0x6fe CMakeFiles/GRBL_STM32F103.elf.dir/Drivers/STM32F1xx_HAL_Driver/Src/stm32f1xx_hal_rcc.c.obj
 .debug_loc     0x0000b765     0x5f22 CMakeFiles/GRBL_STM32F103.elf.dir/Drivers/STM32F1xx_HAL_Driver/Src/stm32f1xx_hal_tim.c.obj
 .debug_loc     0x00011687     0x1206 CMakeFiles/GRBL_STM32F103.elf.dir/Drivers/STM32F1xx_HAL_Driver/Src/stm32f1xx_hal_tim_ex.c.obj
 .debug_loc     0x0001288d      0x495 CMakeFiles/GRBL_STM32F103.elf.dir/Drivers/STM32F1xx_HAL_Driver/Src/stm32f1xx_ll_gpio.c.obj
 .debug_loc     0x00012d22      0x55d CMakeFiles/GRBL_STM32F103.elf.dir/Drivers/STM32F1xx_HAL_Driver/Src/stm32f1xx_ll_rcc.c.obj
 .debug_loc     0x0001327f     0x11df CMakeFiles/GRBL_STM32F103.elf.dir/Drivers/STM32F1xx_HAL_Driver/Src/stm32f1xx_ll_tim.c.obj
 .debug_loc     0x0001445e      0x422 CMakeFiles/GRBL_STM32F103.elf.dir/Drivers/STM32F1xx_HAL_Driver/Src/stm32f1xx_ll_usart.c.obj
 .debug_loc     0x00014880       0x15 CMakeFiles/GRBL_STM32F103.elf.dir/Src/main.c.obj
 .debug_loc     0x00014895       0x15 CMakeFiles/GRBL_STM32F103.elf.dir/Src/stm32f1xx_hal_msp.c.obj
 .debug_loc     0x000148aa      0x1b6 CMakeFiles/GRBL_STM32F103.elf.dir/Src/stm32f1xx_it.c.obj
 .debug_loc     0x00014a60      0x441 CMakeFiles/GRBL_STM32F103.elf.dir/Src/syscalls.c.obj
 .debug_loc     0x00014ea1       0xe7 CMakeFiles/GRBL_STM32F103.elf.dir/Src/system_stm32f1xx.c.obj
 .debug_loc     0x00014f88      0x36c CMakeFiles/GRBL_STM32F103.elf.dir/Src/tim.c.obj
 .debug_loc     0x000152f4       0xa6 CMakeFiles/GRBL_STM32F103.elf.dir/Src/usart.c.obj

.debug_aranges  0x00000000     0x10a8
 .debug_aranges
                0x00000000       0x70 CMakeFiles/GRBL_STM32F103.elf.dir/App/bsp/inoutputs.c.obj
 .debug_aranges
                0x00000070       0x70 CMakeFiles/GRBL_STM32F103.elf.dir/App/bsp/stm32utilities.c.obj
 .debug_aranges
                0x000000e0       0x40 CMakeFiles/GRBL_STM32F103.elf.dir/App/grbl/coolant_control.c.obj
 .debug_aranges
                0x00000120       0x48 CMakeFiles/GRBL_STM32F103.elf.dir/App/grbl/eeprom.c.obj
 .debug_aranges
                0x00000168       0x30 CMakeFiles/GRBL_STM32F103.elf.dir/App/grbl/gcode.c.obj
 .debug_aranges
                0x00000198       0x20 CMakeFiles/GRBL_STM32F103.elf.dir/App/grbl/jog.c.obj
 .debug_aranges
                0x000001b8       0x50 CMakeFiles/GRBL_STM32F103.elf.dir/App/grbl/limits.c.obj
 .debug_aranges
                0x00000208       0x48 CMakeFiles/GRBL_STM32F103.elf.dir/App/grbl/motion_control.c.obj
 .debug_aranges
                0x00000250       0x58 CMakeFiles/GRBL_STM32F103.elf.dir/App/grbl/nuts_bolts.c.obj
 .debug_aranges
                0x000002a8       0x98 CMakeFiles/GRBL_STM32F103.elf.dir/App/grbl/planner.c.obj
 .debug_aranges
                0x00000340       0x58 CMakeFiles/GRBL_STM32F103.elf.dir/App/grbl/print.c.obj
 .debug_aranges
                0x00000398       0x38 CMakeFiles/GRBL_STM32F103.elf.dir/App/grbl/probe.c.obj
 .debug_aranges
                0x000003d0       0x48 CMakeFiles/GRBL_STM32F103.elf.dir/App/grbl/protocol.c.obj
 .debug_aranges
                0x00000418       0x90 CMakeFiles/GRBL_STM32F103.elf.dir/App/grbl/report.c.obj
 .debug_aranges
                0x000004a8       0x58 CMakeFiles/GRBL_STM32F103.elf.dir/App/grbl/serial.c.obj
 .debug_aranges
                0x00000500       0x78 CMakeFiles/GRBL_STM32F103.elf.dir/App/grbl/settings.c.obj
 .debug_aranges
                0x00000578       0x50 CMakeFiles/GRBL_STM32F103.elf.dir/App/grbl/spindle_control.c.obj
 .debug_aranges
                0x000005c8       0x68 CMakeFiles/GRBL_STM32F103.elf.dir/App/grbl/stepper.c.obj
 .debug_aranges
                0x00000630       0xa8 CMakeFiles/GRBL_STM32F103.elf.dir/App/grbl/system.c.obj
 .debug_aranges
                0x000006d8       0xd8 CMakeFiles/GRBL_STM32F103.elf.dir/Drivers/STM32F1xx_HAL_Driver/Src/stm32f1xx_hal.c.obj
 .debug_aranges
                0x000007b0       0x90 CMakeFiles/GRBL_STM32F103.elf.dir/Drivers/STM32F1xx_HAL_Driver/Src/stm32f1xx_hal_cortex.c.obj
 .debug_aranges
                0x00000840       0x70 CMakeFiles/GRBL_STM32F103.elf.dir/Drivers/STM32F1xx_HAL_Driver/Src/stm32f1xx_hal_flash.c.obj
 .debug_aranges
                0x000008b0       0x50 CMakeFiles/GRBL_STM32F103.elf.dir/Drivers/STM32F1xx_HAL_Driver/Src/stm32f1xx_hal_flash_ex.c.obj
 .debug_aranges
                0x00000900       0x58 CMakeFiles/GRBL_STM32F103.elf.dir/Drivers/STM32F1xx_HAL_Driver/Src/stm32f1xx_hal_gpio.c.obj
 .debug_aranges
                0x00000958       0x88 CMakeFiles/GRBL_STM32F103.elf.dir/Drivers/STM32F1xx_HAL_Driver/Src/stm32f1xx_hal_rcc.c.obj
 .debug_aranges
                0x000009e0      0x258 CMakeFiles/GRBL_STM32F103.elf.dir/Drivers/STM32F1xx_HAL_Driver/Src/stm32f1xx_hal_tim.c.obj
 .debug_aranges
                0x00000c38       0xf0 CMakeFiles/GRBL_STM32F103.elf.dir/Drivers/STM32F1xx_HAL_Driver/Src/stm32f1xx_hal_tim_ex.c.obj
 .debug_aranges
                0x00000d28       0x30 CMakeFiles/GRBL_STM32F103.elf.dir/Drivers/STM32F1xx_HAL_Driver/Src/stm32f1xx_ll_gpio.c.obj
 .debug_aranges
                0x00000d58       0x60 CMakeFiles/GRBL_STM32F103.elf.dir/Drivers/STM32F1xx_HAL_Driver/Src/stm32f1xx_ll_rcc.c.obj
 .debug_aranges
                0x00000db8       0x80 CMakeFiles/GRBL_STM32F103.elf.dir/Drivers/STM32F1xx_HAL_Driver/Src/stm32f1xx_ll_tim.c.obj
 .debug_aranges
                0x00000e38       0x40 CMakeFiles/GRBL_STM32F103.elf.dir/Drivers/STM32F1xx_HAL_Driver/Src/stm32f1xx_ll_usart.c.obj
 .debug_aranges
                0x00000e78       0x20 CMakeFiles/GRBL_STM32F103.elf.dir/Src/gpio.c.obj
 .debug_aranges
                0x00000e98       0x30 CMakeFiles/GRBL_STM32F103.elf.dir/Src/main.c.obj
 .debug_aranges
                0x00000ec8       0x20 CMakeFiles/GRBL_STM32F103.elf.dir/Src/stm32f1xx_hal_msp.c.obj
 .debug_aranges
                0x00000ee8       0x80 CMakeFiles/GRBL_STM32F103.elf.dir/Src/stm32f1xx_it.c.obj
 .debug_aranges
                0x00000f68       0xb0 CMakeFiles/GRBL_STM32F103.elf.dir/Src/syscalls.c.obj
 .debug_aranges
                0x00001018       0x28 CMakeFiles/GRBL_STM32F103.elf.dir/Src/system_stm32f1xx.c.obj
 .debug_aranges
                0x00001040       0x48 CMakeFiles/GRBL_STM32F103.elf.dir/Src/tim.c.obj
 .debug_aranges
                0x00001088       0x20 CMakeFiles/GRBL_STM32F103.elf.dir/Src/usart.c.obj

.debug_ranges   0x00000000     0x3cc0
 .debug_ranges  0x00000000      0x138 CMakeFiles/GRBL_STM32F103.elf.dir/App/bsp/inoutputs.c.obj
 .debug_ranges  0x00000138      0x1a0 CMakeFiles/GRBL_STM32F103.elf.dir/App/bsp/stm32utilities.c.obj
 .debug_ranges  0x000002d8       0xb0 CMakeFiles/GRBL_STM32F103.elf.dir/App/grbl/coolant_control.c.obj
 .debug_ranges  0x00000388       0x88 CMakeFiles/GRBL_STM32F103.elf.dir/App/grbl/eeprom.c.obj
 .debug_ranges  0x00000410       0xc8 CMakeFiles/GRBL_STM32F103.elf.dir/App/grbl/gcode.c.obj
 .debug_ranges  0x000004d8       0x10 CMakeFiles/GRBL_STM32F103.elf.dir/App/grbl/jog.c.obj
 .debug_ranges  0x000004e8      0x158 CMakeFiles/GRBL_STM32F103.elf.dir/App/grbl/limits.c.obj
 .debug_ranges  0x00000640       0x80 CMakeFiles/GRBL_STM32F103.elf.dir/App/grbl/motion_control.c.obj
 .debug_ranges  0x000006c0       0xc0 CMakeFiles/GRBL_STM32F103.elf.dir/App/grbl/nuts_bolts.c.obj
 .debug_ranges  0x00000780      0x298 CMakeFiles/GRBL_STM32F103.elf.dir/App/grbl/planner.c.obj
 .debug_ranges  0x00000a18      0x198 CMakeFiles/GRBL_STM32F103.elf.dir/App/grbl/print.c.obj
 .debug_ranges  0x00000bb0       0x58 CMakeFiles/GRBL_STM32F103.elf.dir/App/grbl/probe.c.obj
 .debug_ranges  0x00000c08       0xc0 CMakeFiles/GRBL_STM32F103.elf.dir/App/grbl/protocol.c.obj
 .debug_ranges  0x00000cc8      0x840 CMakeFiles/GRBL_STM32F103.elf.dir/App/grbl/report.c.obj
 .debug_ranges  0x00001508       0x48 CMakeFiles/GRBL_STM32F103.elf.dir/App/grbl/serial.c.obj
 .debug_ranges  0x00001550       0xf8 CMakeFiles/GRBL_STM32F103.elf.dir/App/grbl/settings.c.obj
 .debug_ranges  0x00001648      0x288 CMakeFiles/GRBL_STM32F103.elf.dir/App/grbl/spindle_control.c.obj
 .debug_ranges  0x000018d0      0x3c8 CMakeFiles/GRBL_STM32F103.elf.dir/App/grbl/stepper.c.obj
 .debug_ranges  0x00001c98      0x108 CMakeFiles/GRBL_STM32F103.elf.dir/App/grbl/system.c.obj
 .debug_ranges  0x00001da0       0xc8 CMakeFiles/GRBL_STM32F103.elf.dir/Drivers/STM32F1xx_HAL_Driver/Src/stm32f1xx_hal.c.obj
 .debug_ranges  0x00001e68      0x180 CMakeFiles/GRBL_STM32F103.elf.dir/Drivers/STM32F1xx_HAL_Driver/Src/stm32f1xx_hal_cortex.c.obj
 .debug_ranges  0x00001fe8      0x198 CMakeFiles/GRBL_STM32F103.elf.dir/Drivers/STM32F1xx_HAL_Driver/Src/stm32f1xx_hal_flash.c.obj
 .debug_ranges  0x00002180      0x1b8 CMakeFiles/GRBL_STM32F103.elf.dir/Drivers/STM32F1xx_HAL_Driver/Src/stm32f1xx_hal_flash_ex.c.obj
 .debug_ranges  0x00002338       0x68 CMakeFiles/GRBL_STM32F103.elf.dir/Drivers/STM32F1xx_HAL_Driver/Src/stm32f1xx_hal_gpio.c.obj
 .debug_ranges  0x000023a0      0x138 CMakeFiles/GRBL_STM32F103.elf.dir/Drivers/STM32F1xx_HAL_Driver/Src/stm32f1xx_hal_rcc.c.obj
 .debug_ranges  0x000024d8      0x820 CMakeFiles/GRBL_STM32F103.elf.dir/Drivers/STM32F1xx_HAL_Driver/Src/stm32f1xx_hal_tim.c.obj
 .debug_ranges  0x00002cf8      0x1d0 CMakeFiles/GRBL_STM32F103.elf.dir/Drivers/STM32F1xx_HAL_Driver/Src/stm32f1xx_hal_tim_ex.c.obj
 .debug_ranges  0x00002ec8      0x108 CMakeFiles/GRBL_STM32F103.elf.dir/Drivers/STM32F1xx_HAL_Driver/Src/stm32f1xx_ll_gpio.c.obj
 .debug_ranges  0x00002fd0      0x368 CMakeFiles/GRBL_STM32F103.elf.dir/Drivers/STM32F1xx_HAL_Driver/Src/stm32f1xx_ll_rcc.c.obj
 .debug_ranges  0x00003338      0x268 CMakeFiles/GRBL_STM32F103.elf.dir/Drivers/STM32F1xx_HAL_Driver/Src/stm32f1xx_ll_tim.c.obj
 .debug_ranges  0x000035a0       0xa8 CMakeFiles/GRBL_STM32F103.elf.dir/Drivers/STM32F1xx_HAL_Driver/Src/stm32f1xx_ll_usart.c.obj
 .debug_ranges  0x00003648       0x98 CMakeFiles/GRBL_STM32F103.elf.dir/Src/gpio.c.obj
 .debug_ranges  0x000036e0       0x38 CMakeFiles/GRBL_STM32F103.elf.dir/Src/main.c.obj
 .debug_ranges  0x00003718       0x48 CMakeFiles/GRBL_STM32F103.elf.dir/Src/stm32f1xx_hal_msp.c.obj
 .debug_ranges  0x00003760      0x168 CMakeFiles/GRBL_STM32F103.elf.dir/Src/stm32f1xx_it.c.obj
 .debug_ranges  0x000038c8       0xb8 CMakeFiles/GRBL_STM32F103.elf.dir/Src/syscalls.c.obj
 .debug_ranges  0x00003980       0x18 CMakeFiles/GRBL_STM32F103.elf.dir/Src/system_stm32f1xx.c.obj
 .debug_ranges  0x00003998      0x290 CMakeFiles/GRBL_STM32F103.elf.dir/Src/tim.c.obj
 .debug_ranges  0x00003c28       0x98 CMakeFiles/GRBL_STM32F103.elf.dir/Src/usart.c.obj

.debug_line     0x00000000    0x1c488
 .debug_line    0x00000000      0x6ca CMakeFiles/GRBL_STM32F103.elf.dir/App/bsp/inoutputs.c.obj
 .debug_line    0x000006ca      0xa39 CMakeFiles/GRBL_STM32F103.elf.dir/App/bsp/stm32utilities.c.obj
 .debug_line    0x00001103      0x544 CMakeFiles/GRBL_STM32F103.elf.dir/App/grbl/coolant_control.c.obj
 .debug_line    0x00001647      0x620 CMakeFiles/GRBL_STM32F103.elf.dir/App/grbl/eeprom.c.obj
 .debug_line    0x00001c67     0x17d9 CMakeFiles/GRBL_STM32F103.elf.dir/App/grbl/gcode.c.obj
 .debug_line    0x00003440      0x40d CMakeFiles/GRBL_STM32F103.elf.dir/App/grbl/jog.c.obj
 .debug_line    0x0000384d      0xc0d CMakeFiles/GRBL_STM32F103.elf.dir/App/grbl/limits.c.obj
 .debug_line    0x0000445a      0x993 CMakeFiles/GRBL_STM32F103.elf.dir/App/grbl/motion_control.c.obj
 .debug_line    0x00004ded      0x99b CMakeFiles/GRBL_STM32F103.elf.dir/App/grbl/nuts_bolts.c.obj
 .debug_line    0x00005788      0xe5a CMakeFiles/GRBL_STM32F103.elf.dir/App/grbl/planner.c.obj
 .debug_line    0x000065e2      0xcd6 CMakeFiles/GRBL_STM32F103.elf.dir/App/grbl/print.c.obj
 .debug_line    0x000072b8      0x4bb CMakeFiles/GRBL_STM32F103.elf.dir/App/grbl/probe.c.obj
 .debug_line    0x00007773      0xf14 CMakeFiles/GRBL_STM32F103.elf.dir/App/grbl/protocol.c.obj
 .debug_line    0x00008687     0x14a7 CMakeFiles/GRBL_STM32F103.elf.dir/App/grbl/report.c.obj
 .debug_line    0x00009b2e      0x588 CMakeFiles/GRBL_STM32F103.elf.dir/App/grbl/serial.c.obj
 .debug_line    0x0000a0b6      0xc9c CMakeFiles/GRBL_STM32F103.elf.dir/App/grbl/settings.c.obj
 .debug_line    0x0000ad52      0x992 CMakeFiles/GRBL_STM32F103.elf.dir/App/grbl/spindle_control.c.obj
 .debug_line    0x0000b6e4     0x175f CMakeFiles/GRBL_STM32F103.elf.dir/App/grbl/stepper.c.obj
 .debug_line    0x0000ce43      0xebe CMakeFiles/GRBL_STM32F103.elf.dir/App/grbl/system.c.obj
 .debug_line    0x0000dd01      0x5b8 CMakeFiles/GRBL_STM32F103.elf.dir/Drivers/STM32F1xx_HAL_Driver/Src/stm32f1xx_hal.c.obj
 .debug_line    0x0000e2b9      0x772 CMakeFiles/GRBL_STM32F103.elf.dir/Drivers/STM32F1xx_HAL_Driver/Src/stm32f1xx_hal_cortex.c.obj
 .debug_line    0x0000ea2b      0xad6 CMakeFiles/GRBL_STM32F103.elf.dir/Drivers/STM32F1xx_HAL_Driver/Src/stm32f1xx_hal_flash.c.obj
 .debug_line    0x0000f501      0xaff CMakeFiles/GRBL_STM32F103.elf.dir/Drivers/STM32F1xx_HAL_Driver/Src/stm32f1xx_hal_flash_ex.c.obj
 .debug_line    0x00010000      0x73c CMakeFiles/GRBL_STM32F103.elf.dir/Drivers/STM32F1xx_HAL_Driver/Src/stm32f1xx_hal_gpio.c.obj
 .debug_line    0x0001073c      0xe94 CMakeFiles/GRBL_STM32F103.elf.dir/Drivers/STM32F1xx_HAL_Driver/Src/stm32f1xx_hal_rcc.c.obj
 .debug_line    0x000115d0     0x4a90 CMakeFiles/GRBL_STM32F103.elf.dir/Drivers/STM32F1xx_HAL_Driver/Src/stm32f1xx_hal_tim.c.obj
 .debug_line    0x00016060     0x111e CMakeFiles/GRBL_STM32F103.elf.dir/Drivers/STM32F1xx_HAL_Driver/Src/stm32f1xx_hal_tim_ex.c.obj
 .debug_line    0x0001717e      0x647 CMakeFiles/GRBL_STM32F103.elf.dir/Drivers/STM32F1xx_HAL_Driver/Src/stm32f1xx_ll_gpio.c.obj
 .debug_line    0x000177c5      0xa4b CMakeFiles/GRBL_STM32F103.elf.dir/Drivers/STM32F1xx_HAL_Driver/Src/stm32f1xx_ll_rcc.c.obj
 .debug_line    0x00018210      0xd1e CMakeFiles/GRBL_STM32F103.elf.dir/Drivers/STM32F1xx_HAL_Driver/Src/stm32f1xx_ll_tim.c.obj
 .debug_line    0x00018f2e      0x58a CMakeFiles/GRBL_STM32F103.elf.dir/Drivers/STM32F1xx_HAL_Driver/Src/stm32f1xx_ll_usart.c.obj
 .debug_line    0x000194b8      0x4e0 CMakeFiles/GRBL_STM32F103.elf.dir/Src/gpio.c.obj
 .debug_line    0x00019998      0x74b CMakeFiles/GRBL_STM32F103.elf.dir/Src/main.c.obj
 .debug_line    0x0001a0e3      0x3d7 CMakeFiles/GRBL_STM32F103.elf.dir/Src/stm32f1xx_hal_msp.c.obj
 .debug_line    0x0001a4ba      0x705 CMakeFiles/GRBL_STM32F103.elf.dir/Src/stm32f1xx_it.c.obj
 .debug_line    0x0001abbf      0x55f CMakeFiles/GRBL_STM32F103.elf.dir/Src/syscalls.c.obj
 .debug_line    0x0001b11e      0x32d CMakeFiles/GRBL_STM32F103.elf.dir/Src/system_stm32f1xx.c.obj
 .debug_line    0x0001b44b      0xa99 CMakeFiles/GRBL_STM32F103.elf.dir/Src/tim.c.obj
 .debug_line    0x0001bee4      0x5a4 CMakeFiles/GRBL_STM32F103.elf.dir/Src/usart.c.obj

.debug_str      0x00000000     0x677e
 .debug_str     0x00000000      0xc6b CMakeFiles/GRBL_STM32F103.elf.dir/App/bsp/inoutputs.c.obj
                                0xdde (size before relaxing)
 .debug_str     0x00000c6b      0x223 CMakeFiles/GRBL_STM32F103.elf.dir/App/bsp/stm32utilities.c.obj
                                0xe2a (size before relaxing)
 .debug_str     0x00000e8e       0x99 CMakeFiles/GRBL_STM32F103.elf.dir/App/grbl/coolant_control.c.obj
                                0xccb (size before relaxing)
 .debug_str     0x00000f27      0x179 CMakeFiles/GRBL_STM32F103.elf.dir/App/grbl/eeprom.c.obj
                                0xd76 (size before relaxing)
 .debug_str     0x000010a0      0x31c CMakeFiles/GRBL_STM32F103.elf.dir/App/grbl/gcode.c.obj
                                0xfa2 (size before relaxing)
 .debug_str     0x000013bc       0x85 CMakeFiles/GRBL_STM32F103.elf.dir/App/grbl/jog.c.obj
                                0xcba (size before relaxing)
 .debug_str     0x00001441      0x4ed CMakeFiles/GRBL_STM32F103.elf.dir/App/grbl/limits.c.obj
                               0x119f (size before relaxing)
 .debug_str     0x0000192e      0x23b CMakeFiles/GRBL_STM32F103.elf.dir/App/grbl/motion_control.c.obj
                               0x126f (size before relaxing)
 .debug_str     0x00001b69      0x11c CMakeFiles/GRBL_STM32F103.elf.dir/App/grbl/nuts_bolts.c.obj
                                0xd79 (size before relaxing)
 .debug_str     0x00001c85      0x354 CMakeFiles/GRBL_STM32F103.elf.dir/App/grbl/planner.c.obj
                               0x105a (size before relaxing)
 .debug_str     0x00001fd9      0x106 CMakeFiles/GRBL_STM32F103.elf.dir/App/grbl/print.c.obj
                                0xcc7 (size before relaxing)
 .debug_str     0x000020df       0x6c CMakeFiles/GRBL_STM32F103.elf.dir/App/grbl/probe.c.obj
                                0xc9a (size before relaxing)
 .debug_str     0x0000214b      0x1e3 CMakeFiles/GRBL_STM32F103.elf.dir/App/grbl/protocol.c.obj
                               0x1063 (size before relaxing)
 .debug_str     0x0000232e      0x2c2 CMakeFiles/GRBL_STM32F103.elf.dir/App/grbl/report.c.obj
                               0x1008 (size before relaxing)
 .debug_str     0x000025f0      0x14f CMakeFiles/GRBL_STM32F103.elf.dir/App/grbl/serial.c.obj
                                0xdb4 (size before relaxing)
 .debug_str     0x0000273f      0x169 CMakeFiles/GRBL_STM32F103.elf.dir/App/grbl/settings.c.obj
                                0xead (size before relaxing)
 .debug_str     0x000028a8       0xd9 CMakeFiles/GRBL_STM32F103.elf.dir/App/grbl/spindle_control.c.obj
                                0xde2 (size before relaxing)
 .debug_str     0x00002981      0x451 CMakeFiles/GRBL_STM32F103.elf.dir/App/grbl/stepper.c.obj
                               0x16e2 (size before relaxing)
 .debug_str     0x00002dd2       0xba CMakeFiles/GRBL_STM32F103.elf.dir/App/grbl/system.c.obj
                               0x1062 (size before relaxing)
 .debug_str     0x00002e8c      0x316 CMakeFiles/GRBL_STM32F103.elf.dir/Drivers/STM32F1xx_HAL_Driver/Src/stm32f1xx_hal.c.obj
                                0x8c5 (size before relaxing)
 .debug_str     0x000031a2      0x324 CMakeFiles/GRBL_STM32F103.elf.dir/Drivers/STM32F1xx_HAL_Driver/Src/stm32f1xx_hal_cortex.c.obj
                                0x9e7 (size before relaxing)
 .debug_str     0x000034c6      0x28a CMakeFiles/GRBL_STM32F103.elf.dir/Drivers/STM32F1xx_HAL_Driver/Src/stm32f1xx_hal_flash.c.obj
                                0x655 (size before relaxing)
 .debug_str     0x00003750      0x2ea CMakeFiles/GRBL_STM32F103.elf.dir/Drivers/STM32F1xx_HAL_Driver/Src/stm32f1xx_hal_flash_ex.c.obj
                                0x76b (size before relaxing)
 .debug_str     0x00003a3a      0x15e CMakeFiles/GRBL_STM32F103.elf.dir/Drivers/STM32F1xx_HAL_Driver/Src/stm32f1xx_hal_gpio.c.obj
                                0x538 (size before relaxing)
 .debug_str     0x00003b98      0x351 CMakeFiles/GRBL_STM32F103.elf.dir/Drivers/STM32F1xx_HAL_Driver/Src/stm32f1xx_hal_rcc.c.obj
                                0x71a (size before relaxing)
 .debug_str     0x00003ee9     0x111b CMakeFiles/GRBL_STM32F103.elf.dir/Drivers/STM32F1xx_HAL_Driver/Src/stm32f1xx_hal_tim.c.obj
                               0x1569 (size before relaxing)
 .debug_str     0x00005004      0x55f CMakeFiles/GRBL_STM32F103.elf.dir/Drivers/STM32F1xx_HAL_Driver/Src/stm32f1xx_hal_tim_ex.c.obj
                                0xd81 (size before relaxing)
 .debug_str     0x00005563      0x179 CMakeFiles/GRBL_STM32F103.elf.dir/Drivers/STM32F1xx_HAL_Driver/Src/stm32f1xx_ll_gpio.c.obj
                                0x49a (size before relaxing)
 .debug_str     0x000056dc      0x344 CMakeFiles/GRBL_STM32F103.elf.dir/Drivers/STM32F1xx_HAL_Driver/Src/stm32f1xx_ll_rcc.c.obj
                                0x658 (size before relaxing)
 .debug_str     0x00005a20      0x400 CMakeFiles/GRBL_STM32F103.elf.dir/Drivers/STM32F1xx_HAL_Driver/Src/stm32f1xx_ll_tim.c.obj
                                0x991 (size before relaxing)
 .debug_str     0x00005e20      0x21e CMakeFiles/GRBL_STM32F103.elf.dir/Drivers/STM32F1xx_HAL_Driver/Src/stm32f1xx_ll_usart.c.obj
                                0x62f (size before relaxing)
 .debug_str     0x0000603e       0x42 CMakeFiles/GRBL_STM32F103.elf.dir/Src/gpio.c.obj
                                0xfca (size before relaxing)
 .debug_str     0x00006080       0xc2 CMakeFiles/GRBL_STM32F103.elf.dir/Src/main.c.obj
                               0x15cf (size before relaxing)
 .debug_str     0x00006142       0x42 CMakeFiles/GRBL_STM32F103.elf.dir/Src/stm32f1xx_hal_msp.c.obj
                                0xc83 (size before relaxing)
 .debug_str     0x00006184      0x185 CMakeFiles/GRBL_STM32F103.elf.dir/Src/stm32f1xx_it.c.obj
                               0x1199 (size before relaxing)
 .debug_str     0x00006309      0x283 CMakeFiles/GRBL_STM32F103.elf.dir/Src/syscalls.c.obj
                                0x8c0 (size before relaxing)
 .debug_str     0x0000658c       0x6a CMakeFiles/GRBL_STM32F103.elf.dir/Src/system_stm32f1xx.c.obj
                                0x3a7 (size before relaxing)
 .debug_str     0x000065f6      0x129 CMakeFiles/GRBL_STM32F103.elf.dir/Src/tim.c.obj
                               0x18fd (size before relaxing)
 .debug_str     0x0000671f       0x5f CMakeFiles/GRBL_STM32F103.elf.dir/Src/usart.c.obj
                               0x11f8 (size before relaxing)

.comment        0x00000000       0x79
 .comment       0x00000000       0x79 CMakeFiles/GRBL_STM32F103.elf.dir/App/bsp/inoutputs.c.obj
                                 0x7a (size before relaxing)
 .comment       0x00000079       0x7a CMakeFiles/GRBL_STM32F103.elf.dir/App/bsp/stm32utilities.c.obj
 .comment       0x00000079       0x7a CMakeFiles/GRBL_STM32F103.elf.dir/App/grbl/coolant_control.c.obj
 .comment       0x00000079       0x7a CMakeFiles/GRBL_STM32F103.elf.dir/App/grbl/eeprom.c.obj
 .comment       0x00000079       0x7a CMakeFiles/GRBL_STM32F103.elf.dir/App/grbl/gcode.c.obj
 .comment       0x00000079       0x7a CMakeFiles/GRBL_STM32F103.elf.dir/App/grbl/jog.c.obj
 .comment       0x00000079       0x7a CMakeFiles/GRBL_STM32F103.elf.dir/App/grbl/limits.c.obj
 .comment       0x00000079       0x7a CMakeFiles/GRBL_STM32F103.elf.dir/App/grbl/motion_control.c.obj
 .comment       0x00000079       0x7a CMakeFiles/GRBL_STM32F103.elf.dir/App/grbl/nuts_bolts.c.obj
 .comment       0x00000079       0x7a CMakeFiles/GRBL_STM32F103.elf.dir/App/grbl/planner.c.obj
 .comment       0x00000079       0x7a CMakeFiles/GRBL_STM32F103.elf.dir/App/grbl/print.c.obj
 .comment       0x00000079       0x7a CMakeFiles/GRBL_STM32F103.elf.dir/App/grbl/probe.c.obj
 .comment       0x00000079       0x7a CMakeFiles/GRBL_STM32F103.elf.dir/App/grbl/protocol.c.obj
 .comment       0x00000079       0x7a CMakeFiles/GRBL_STM32F103.elf.dir/App/grbl/report.c.obj
 .comment       0x00000079       0x7a CMakeFiles/GRBL_STM32F103.elf.dir/App/grbl/serial.c.obj
 .comment       0x00000079       0x7a CMakeFiles/GRBL_STM32F103.elf.dir/App/grbl/settings.c.obj
 .comment       0x00000079       0x7a CMakeFiles/GRBL_STM32F103.elf.dir/App/grbl/spindle_control.c.obj
 .comment       0x00000079       0x7a CMakeFiles/GRBL_STM32F103.elf.dir/App/grbl/stepper.c.obj
 .comment       0x00000079       0x7a CMakeFiles/GRBL_STM32F103.elf.dir/App/grbl/system.c.obj
 .comment       0x00000079       0x7a CMakeFiles/GRBL_STM32F103.elf.dir/Drivers/STM32F1xx_HAL_Driver/Src/stm32f1xx_hal.c.obj
 .comment       0x00000079       0x7a CMakeFiles/GRBL_STM32F103.elf.dir/Drivers/STM32F1xx_HAL_Driver/Src/stm32f1xx_hal_cortex.c.obj
 .comment       0x00000079       0x7a CMakeFiles/GRBL_STM32F103.elf.dir/Drivers/STM32F1xx_HAL_Driver/Src/stm32f1xx_hal_flash.c.obj
 .comment       0x00000079       0x7a CMakeFiles/GRBL_STM32F103.elf.dir/Drivers/STM32F1xx_HAL_Driver/Src/stm32f1xx_hal_flash_ex.c.obj
 .comment       0x00000079       0x7a CMakeFiles/GRBL_STM32F103.elf.dir/Drivers/STM32F1xx_HAL_Driver/Src/stm32f1xx_hal_gpio.c.obj
 .comment       0x00000079       0x7a CMakeFiles/GRBL_STM32F103.elf.dir/Drivers/STM32F1xx_HAL_Driver/Src/stm32f1xx_hal_rcc.c.obj
 .comment       0x00000079       0x7a CMakeFiles/GRBL_STM32F103.elf.dir/Drivers/STM32F1xx_HAL_Driver/Src/stm32f1xx_hal_tim.c.obj
 .comment       0x00000079       0x7a CMakeFiles/GRBL_STM32F103.elf.dir/Drivers/STM32F1xx_HAL_Driver/Src/stm32f1xx_hal_tim_ex.c.obj
 .comment       0x00000079       0x7a CMakeFiles/GRBL_STM32F103.elf.dir/Drivers/STM32F1xx_HAL_Driver/Src/stm32f1xx_ll_gpio.c.obj
 .comment       0x00000079       0x7a CMakeFiles/GRBL_STM32F103.elf.dir/Drivers/STM32F1xx_HAL_Driver/Src/stm32f1xx_ll_rcc.c.obj
 .comment       0x00000079       0x7a CMakeFiles/GRBL_STM32F103.elf.dir/Drivers/STM32F1xx_HAL_Driver/Src/stm32f1xx_ll_tim.c.obj
 .comment       0x00000079       0x7a CMakeFiles/GRBL_STM32F103.elf.dir/Drivers/STM32F1xx_HAL_Driver/Src/stm32f1xx_ll_usart.c.obj
 .comment       0x00000079       0x7a CMakeFiles/GRBL_STM32F103.elf.dir/Src/gpio.c.obj
 .comment       0x00000079       0x7a CMakeFiles/GRBL_STM32F103.elf.dir/Src/main.c.obj
 .comment       0x00000079       0x7a CMakeFiles/GRBL_STM32F103.elf.dir/Src/stm32f1xx_hal_msp.c.obj
 .comment       0x00000079       0x7a CMakeFiles/GRBL_STM32F103.elf.dir/Src/stm32f1xx_it.c.obj
 .comment       0x00000079       0x7a CMakeFiles/GRBL_STM32F103.elf.dir/Src/syscalls.c.obj
 .comment       0x00000079       0x7a CMakeFiles/GRBL_STM32F103.elf.dir/Src/system_stm32f1xx.c.obj
 .comment       0x00000079       0x7a CMakeFiles/GRBL_STM32F103.elf.dir/Src/tim.c.obj
 .comment       0x00000079       0x7a CMakeFiles/GRBL_STM32F103.elf.dir/Src/usart.c.obj

.debug_frame    0x00000000     0x3930
 .debug_frame   0x00000000      0x134 CMakeFiles/GRBL_STM32F103.elf.dir/App/bsp/inoutputs.c.obj
 .debug_frame   0x00000134       0xe4 CMakeFiles/GRBL_STM32F103.elf.dir/App/bsp/stm32utilities.c.obj
 .debug_frame   0x00000218       0x90 CMakeFiles/GRBL_STM32F103.elf.dir/App/grbl/coolant_control.c.obj
 .debug_frame   0x000002a8       0xd4 CMakeFiles/GRBL_STM32F103.elf.dir/App/grbl/eeprom.c.obj
 .debug_frame   0x0000037c       0x84 CMakeFiles/GRBL_STM32F103.elf.dir/App/grbl/gcode.c.obj
 .debug_frame   0x00000400       0x2c CMakeFiles/GRBL_STM32F103.elf.dir/App/grbl/jog.c.obj
 .debug_frame   0x0000042c       0xc0 CMakeFiles/GRBL_STM32F103.elf.dir/App/grbl/limits.c.obj
 .debug_frame   0x000004ec       0xf8 CMakeFiles/GRBL_STM32F103.elf.dir/App/grbl/motion_control.c.obj
 .debug_frame   0x000005e4      0x104 CMakeFiles/GRBL_STM32F103.elf.dir/App/grbl/nuts_bolts.c.obj
 .debug_frame   0x000006e8      0x1b8 CMakeFiles/GRBL_STM32F103.elf.dir/App/grbl/planner.c.obj
 .debug_frame   0x000008a0      0x190 CMakeFiles/GRBL_STM32F103.elf.dir/App/grbl/print.c.obj
 .debug_frame   0x00000a30       0x5c CMakeFiles/GRBL_STM32F103.elf.dir/App/grbl/probe.c.obj
 .debug_frame   0x00000a8c       0xe0 CMakeFiles/GRBL_STM32F103.elf.dir/App/grbl/protocol.c.obj
 .debug_frame   0x00000b6c      0x1f4 CMakeFiles/GRBL_STM32F103.elf.dir/App/grbl/report.c.obj
 .debug_frame   0x00000d60       0x9c CMakeFiles/GRBL_STM32F103.elf.dir/App/grbl/serial.c.obj
 .debug_frame   0x00000dfc      0x168 CMakeFiles/GRBL_STM32F103.elf.dir/App/grbl/settings.c.obj
 .debug_frame   0x00000f64       0xc8 CMakeFiles/GRBL_STM32F103.elf.dir/App/grbl/spindle_control.c.obj
 .debug_frame   0x0000102c      0x180 CMakeFiles/GRBL_STM32F103.elf.dir/App/grbl/stepper.c.obj
 .debug_frame   0x000011ac      0x18c CMakeFiles/GRBL_STM32F103.elf.dir/App/grbl/system.c.obj
 .debug_frame   0x00001338      0x1d4 CMakeFiles/GRBL_STM32F103.elf.dir/Drivers/STM32F1xx_HAL_Driver/Src/stm32f1xx_hal.c.obj
 .debug_frame   0x0000150c      0x138 CMakeFiles/GRBL_STM32F103.elf.dir/Drivers/STM32F1xx_HAL_Driver/Src/stm32f1xx_hal_cortex.c.obj
 .debug_frame   0x00001644      0x120 CMakeFiles/GRBL_STM32F103.elf.dir/Drivers/STM32F1xx_HAL_Driver/Src/stm32f1xx_hal_flash.c.obj
 .debug_frame   0x00001764       0xd0 CMakeFiles/GRBL_STM32F103.elf.dir/Drivers/STM32F1xx_HAL_Driver/Src/stm32f1xx_hal_flash_ex.c.obj
 .debug_frame   0x00001834       0xec CMakeFiles/GRBL_STM32F103.elf.dir/Drivers/STM32F1xx_HAL_Driver/Src/stm32f1xx_hal_gpio.c.obj
 .debug_frame   0x00001920      0x1b0 CMakeFiles/GRBL_STM32F103.elf.dir/Drivers/STM32F1xx_HAL_Driver/Src/stm32f1xx_hal_rcc.c.obj
 .debug_frame   0x00001ad0      0xa30 CMakeFiles/GRBL_STM32F103.elf.dir/Drivers/STM32F1xx_HAL_Driver/Src/stm32f1xx_hal_tim.c.obj
 .debug_frame   0x00002500      0x3a0 CMakeFiles/GRBL_STM32F103.elf.dir/Drivers/STM32F1xx_HAL_Driver/Src/stm32f1xx_hal_tim_ex.c.obj
 .debug_frame   0x000028a0       0x64 CMakeFiles/GRBL_STM32F103.elf.dir/Drivers/STM32F1xx_HAL_Driver/Src/stm32f1xx_ll_gpio.c.obj
 .debug_frame   0x00002904       0xbc CMakeFiles/GRBL_STM32F103.elf.dir/Drivers/STM32F1xx_HAL_Driver/Src/stm32f1xx_ll_rcc.c.obj
 .debug_frame   0x000029c0      0x18c CMakeFiles/GRBL_STM32F103.elf.dir/Drivers/STM32F1xx_HAL_Driver/Src/stm32f1xx_ll_tim.c.obj
 .debug_frame   0x00002b4c       0x80 CMakeFiles/GRBL_STM32F103.elf.dir/Drivers/STM32F1xx_HAL_Driver/Src/stm32f1xx_ll_usart.c.obj
 .debug_frame   0x00002bcc       0x3c CMakeFiles/GRBL_STM32F103.elf.dir/Src/gpio.c.obj
 .debug_frame   0x00002c08       0x6c CMakeFiles/GRBL_STM32F103.elf.dir/Src/main.c.obj
 .debug_frame   0x00002c74       0x28 CMakeFiles/GRBL_STM32F103.elf.dir/Src/stm32f1xx_hal_msp.c.obj
 .debug_frame   0x00002c9c      0x158 CMakeFiles/GRBL_STM32F103.elf.dir/Src/stm32f1xx_it.c.obj
 .debug_frame   0x00002df4      0x1a8 CMakeFiles/GRBL_STM32F103.elf.dir/Src/syscalls.c.obj
 .debug_frame   0x00002f9c       0x3c CMakeFiles/GRBL_STM32F103.elf.dir/Src/system_stm32f1xx.c.obj
 .debug_frame   0x00002fd8       0xec CMakeFiles/GRBL_STM32F103.elf.dir/Src/tim.c.obj
 .debug_frame   0x000030c4       0x38 CMakeFiles/GRBL_STM32F103.elf.dir/Src/usart.c.obj
 .debug_frame   0x000030fc       0xac d:/progra~2/stm32c~1/gnu-to~1/bin/../lib/gcc/arm-none-eabi/9.2.1/thumb/v7-m/nofp\libgcc.a(_arm_addsubdf3.o)
 .debug_frame   0x000031a8       0x50 d:/progra~2/stm32c~1/gnu-to~1/bin/../lib/gcc/arm-none-eabi/9.2.1/thumb/v7-m/nofp\libgcc.a(_arm_muldivdf3.o)
 .debug_frame   0x000031f8       0xc4 d:/progra~2/stm32c~1/gnu-to~1/bin/../lib/gcc/arm-none-eabi/9.2.1/thumb/v7-m/nofp\libgcc.a(_arm_cmpdf2.o)
 .debug_frame   0x000032bc       0x24 d:/progra~2/stm32c~1/gnu-to~1/bin/../lib/gcc/arm-none-eabi/9.2.1/thumb/v7-m/nofp\libgcc.a(_arm_fixunsdfsi.o)
 .debug_frame   0x000032e0       0x24 d:/progra~2/stm32c~1/gnu-to~1/bin/../lib/gcc/arm-none-eabi/9.2.1/thumb/v7-m/nofp\libgcc.a(_arm_truncdfsf2.o)
 .debug_frame   0x00003304       0x4c d:/progra~2/stm32c~1/gnu-to~1/bin/../lib/gcc/arm-none-eabi/9.2.1/thumb/v7-m/nofp\libgcc.a(_arm_addsubsf3.o)
 .debug_frame   0x00003350       0x38 d:/progra~2/stm32c~1/gnu-to~1/bin/../lib/gcc/arm-none-eabi/9.2.1/thumb/v7-m/nofp\libgcc.a(_arm_muldivsf3.o)
 .debug_frame   0x00003388       0xc8 d:/progra~2/stm32c~1/gnu-to~1/bin/../lib/gcc/arm-none-eabi/9.2.1/thumb/v7-m/nofp\libgcc.a(_arm_cmpsf2.o)
 .debug_frame   0x00003450       0x24 d:/progra~2/stm32c~1/gnu-to~1/bin/../lib/gcc/arm-none-eabi/9.2.1/thumb/v7-m/nofp\libgcc.a(_arm_fixsfsi.o)
 .debug_frame   0x00003474       0x24 d:/progra~2/stm32c~1/gnu-to~1/bin/../lib/gcc/arm-none-eabi/9.2.1/thumb/v7-m/nofp\libgcc.a(_arm_fixunssfsi.o)
 .debug_frame   0x00003498       0x20 d:/progra~2/stm32c~1/gnu-to~1/bin/../lib/gcc/arm-none-eabi/9.2.1/../../../../arm-none-eabi/lib/thumb/v7-m/nofp\libg_nano.a(lib_a-errno.o)
 .debug_frame   0x000034b8       0x2c d:/progra~2/stm32c~1/gnu-to~1/bin/../lib/gcc/arm-none-eabi/9.2.1/../../../../arm-none-eabi/lib/thumb/v7-m/nofp\libg_nano.a(lib_a-init.o)
 .debug_frame   0x000034e4       0x2c d:/progra~2/stm32c~1/gnu-to~1/bin/../lib/gcc/arm-none-eabi/9.2.1/../../../../arm-none-eabi/lib/thumb/v7-m/nofp\libg_nano.a(lib_a-memcmp.o)
 .debug_frame   0x00003510       0x20 d:/progra~2/stm32c~1/gnu-to~1/bin/../lib/gcc/arm-none-eabi/9.2.1/../../../../arm-none-eabi/lib/thumb/v7-m/nofp\libg_nano.a(lib_a-memset.o)
 .debug_frame   0x00003530       0x6c d:/progra~2/stm32c~1/gnu-to~1/bin/../lib/gcc/arm-none-eabi/9.2.1/../../../../arm-none-eabi/lib/thumb/v7-m/nofp\libg_nano.a(lib_a-sprintf.o)
 .debug_frame   0x0000359c       0x90 d:/progra~2/stm32c~1/gnu-to~1/bin/../lib/gcc/arm-none-eabi/9.2.1/../../../../arm-none-eabi/lib/thumb/v7-m/nofp\libg_nano.a(lib_a-nano-svfprintf.o)
 .debug_frame   0x0000362c       0x60 d:/progra~2/stm32c~1/gnu-to~1/bin/../lib/gcc/arm-none-eabi/9.2.1/../../../../arm-none-eabi/lib/thumb/v7-m/nofp\libg_nano.a(lib_a-nano-vfprintf_i.o)
 .debug_frame   0x0000368c       0x28 d:/progra~2/stm32c~1/gnu-to~1/bin/../lib/gcc/arm-none-eabi/9.2.1/../../../../arm-none-eabi/lib/thumb/v7-m/nofp\libg_nano.a(lib_a-memchr-stub.o)
 .debug_frame   0x000036b4       0x28 d:/progra~2/stm32c~1/gnu-to~1/bin/../lib/gcc/arm-none-eabi/9.2.1/../../../../arm-none-eabi/lib/thumb/v7-m/nofp\libg_nano.a(lib_a-memcpy-stub.o)
 .debug_frame   0x000036dc       0x28 d:/progra~2/stm32c~1/gnu-to~1/bin/../lib/gcc/arm-none-eabi/9.2.1/../../../../arm-none-eabi/lib/thumb/v7-m/nofp\libg_nano.a(lib_a-memmove.o)
 .debug_frame   0x00003704       0x38 d:/progra~2/stm32c~1/gnu-to~1/bin/../lib/gcc/arm-none-eabi/9.2.1/../../../../arm-none-eabi/lib/thumb/v7-m/nofp\libg_nano.a(lib_a-nano-freer.o)
 .debug_frame   0x0000373c       0x30 d:/progra~2/stm32c~1/gnu-to~1/bin/../lib/gcc/arm-none-eabi/9.2.1/../../../../arm-none-eabi/lib/thumb/v7-m/nofp\libg_nano.a(lib_a-nano-mallocr.o)
 .debug_frame   0x0000376c       0x3c d:/progra~2/stm32c~1/gnu-to~1/bin/../lib/gcc/arm-none-eabi/9.2.1/../../../../arm-none-eabi/lib/thumb/v7-m/nofp\libg_nano.a(lib_a-nano-reallocr.o)
 .debug_frame   0x000037a8       0x2c d:/progra~2/stm32c~1/gnu-to~1/bin/../lib/gcc/arm-none-eabi/9.2.1/../../../../arm-none-eabi/lib/thumb/v7-m/nofp\libg_nano.a(lib_a-sbrkr.o)
 .debug_frame   0x000037d4       0x30 d:/progra~2/stm32c~1/gnu-to~1/bin/../lib/gcc/arm-none-eabi/9.2.1/../../../../arm-none-eabi/lib/thumb/v7-m/nofp\libg_nano.a(lib_a-mlock.o)
 .debug_frame   0x00003804       0x20 d:/progra~2/stm32c~1/gnu-to~1/bin/../lib/gcc/arm-none-eabi/9.2.1/../../../../arm-none-eabi/lib/thumb/v7-m/nofp\libg_nano.a(lib_a-nano-msizer.o)
 .debug_frame   0x00003824       0x5c d:/progra~2/stm32c~1/gnu-to~1/bin/../lib/gcc/arm-none-eabi/9.2.1/../../../../arm-none-eabi/lib/thumb/v7-m/nofp\libg_nano.a(lib_a-reent.o)
 .debug_frame   0x00003880       0xb0 d:/progra~2/stm32c~1/gnu-to~1/bin/../lib/gcc/arm-none-eabi/9.2.1/../../../../arm-none-eabi/lib/thumb/v7-m/nofp\libg_nano.a(lib_a-lock.o)
